Archive member included to satisfy reference by file (symbol)

C:\Users\minec\AppData\Local\arduino\sketches\CBAA8D2BDA3D583126B4F168E555FB8A/..\..\cores\69cc2d20a9c0859fc6838a3a84e0426a\core.a(delay.c.o)
                              C:\Users\minec\AppData\Local\arduino\sketches\CBAA8D2BDA3D583126B4F168E555FB8A\sketch\BlinkLEDs.ino.cpp.o (delay)
C:\Users\minec\AppData\Local\arduino\sketches\CBAA8D2BDA3D583126B4F168E555FB8A/..\..\cores\69cc2d20a9c0859fc6838a3a84e0426a\core.a(tasks.c.o)
                              C:\Users\minec\AppData\Local\arduino\sketches\CBAA8D2BDA3D583126B4F168E555FB8A/..\..\cores\69cc2d20a9c0859fc6838a3a84e0426a\core.a(delay.c.o) (xTaskGetTickCount)
C:\Users\minec\AppData\Local\arduino\sketches\CBAA8D2BDA3D583126B4F168E555FB8A/..\..\cores\69cc2d20a9c0859fc6838a3a84e0426a\core.a(timers.c.o)
                              C:\Users\minec\AppData\Local\arduino\sketches\CBAA8D2BDA3D583126B4F168E555FB8A/..\..\cores\69cc2d20a9c0859fc6838a3a84e0426a\core.a(tasks.c.o) (xTimerCreateTimerTask)
C:\Users\minec\AppData\Local\arduino\sketches\CBAA8D2BDA3D583126B4F168E555FB8A/..\..\cores\69cc2d20a9c0859fc6838a3a84e0426a\core.a(main.cpp.o)
                              c:/users/minec/appdata/local/arduino15/packages/n-able-arduino/tools/gcc-arm-none-eabi/10.3.1-2.1/bin/../lib/gcc/arm-none-eabi/10.3.1/../../../../arm-none-eabi/lib/thumb/v7e-m/nofp/crt0.o (main)
C:\Users\minec\AppData\Local\arduino\sketches\CBAA8D2BDA3D583126B4F168E555FB8A/..\..\cores\69cc2d20a9c0859fc6838a3a84e0426a\core.a(gcc_startup_nrf52810.S.o)
                              (Reset_Handler)
C:\Users\minec\AppData\Local\arduino\sketches\CBAA8D2BDA3D583126B4F168E555FB8A/..\..\cores\69cc2d20a9c0859fc6838a3a84e0426a\core.a(system_nrf52810.c.o)
                              C:\Users\minec\AppData\Local\arduino\sketches\CBAA8D2BDA3D583126B4F168E555FB8A/..\..\cores\69cc2d20a9c0859fc6838a3a84e0426a\core.a(gcc_startup_nrf52810.S.o) (SystemInit)
C:\Users\minec\AppData\Local\arduino\sketches\CBAA8D2BDA3D583126B4F168E555FB8A/..\..\cores\69cc2d20a9c0859fc6838a3a84e0426a\core.a(rtos.cpp.o)
                              C:\Users\minec\AppData\Local\arduino\sketches\CBAA8D2BDA3D583126B4F168E555FB8A/..\..\cores\69cc2d20a9c0859fc6838a3a84e0426a\core.a(tasks.c.o) (vApplicationStackOverflowHook)
C:\Users\minec\AppData\Local\arduino\sketches\CBAA8D2BDA3D583126B4F168E555FB8A/..\..\cores\69cc2d20a9c0859fc6838a3a84e0426a\core.a(debug_utils.cpp.o)
                              C:\Users\minec\AppData\Local\arduino\sketches\CBAA8D2BDA3D583126B4F168E555FB8A/..\..\cores\69cc2d20a9c0859fc6838a3a84e0426a\core.a(rtos.cpp.o) (dump_call_stack())
C:\Users\minec\AppData\Local\arduino\sketches\CBAA8D2BDA3D583126B4F168E555FB8A/..\..\cores\69cc2d20a9c0859fc6838a3a84e0426a\core.a(wiring.c.o)
                              C:\Users\minec\AppData\Local\arduino\sketches\CBAA8D2BDA3D583126B4F168E555FB8A/..\..\cores\69cc2d20a9c0859fc6838a3a84e0426a\core.a(main.cpp.o) (init)
C:\Users\minec\AppData\Local\arduino\sketches\CBAA8D2BDA3D583126B4F168E555FB8A/..\..\cores\69cc2d20a9c0859fc6838a3a84e0426a\core.a(wiring_digital.c.o)
                              C:\Users\minec\AppData\Local\arduino\sketches\CBAA8D2BDA3D583126B4F168E555FB8A\sketch\BlinkLEDs.ino.cpp.o (pinMode)
C:\Users\minec\AppData\Local\arduino\sketches\CBAA8D2BDA3D583126B4F168E555FB8A/..\..\cores\69cc2d20a9c0859fc6838a3a84e0426a\core.a(Print.cpp.o)
                              C:\Users\minec\AppData\Local\arduino\sketches\CBAA8D2BDA3D583126B4F168E555FB8A/..\..\cores\69cc2d20a9c0859fc6838a3a84e0426a\core.a(debug_utils.cpp.o) (Print::println(char const*))
C:\Users\minec\AppData\Local\arduino\sketches\CBAA8D2BDA3D583126B4F168E555FB8A/..\..\cores\69cc2d20a9c0859fc6838a3a84e0426a\core.a(Uart.cpp.o)
                              C:\Users\minec\AppData\Local\arduino\sketches\CBAA8D2BDA3D583126B4F168E555FB8A/..\..\cores\69cc2d20a9c0859fc6838a3a84e0426a\core.a(debug_utils.cpp.o) (Uart::operator bool())
C:\Users\minec\AppData\Local\arduino\sketches\CBAA8D2BDA3D583126B4F168E555FB8A/..\..\cores\69cc2d20a9c0859fc6838a3a84e0426a\core.a(heap_4.c.o)
                              C:\Users\minec\AppData\Local\arduino\sketches\CBAA8D2BDA3D583126B4F168E555FB8A/..\..\cores\69cc2d20a9c0859fc6838a3a84e0426a\core.a(tasks.c.o) (pvPortMalloc)
C:\Users\minec\AppData\Local\arduino\sketches\CBAA8D2BDA3D583126B4F168E555FB8A/..\..\cores\69cc2d20a9c0859fc6838a3a84e0426a\core.a(list.c.o)
                              C:\Users\minec\AppData\Local\arduino\sketches\CBAA8D2BDA3D583126B4F168E555FB8A/..\..\cores\69cc2d20a9c0859fc6838a3a84e0426a\core.a(tasks.c.o) (vListInitialise)
C:\Users\minec\AppData\Local\arduino\sketches\CBAA8D2BDA3D583126B4F168E555FB8A/..\..\cores\69cc2d20a9c0859fc6838a3a84e0426a\core.a(port_nrf52.c.o)
                              C:\Users\minec\AppData\Local\arduino\sketches\CBAA8D2BDA3D583126B4F168E555FB8A/..\..\cores\69cc2d20a9c0859fc6838a3a84e0426a\core.a(tasks.c.o) (pxPortInitialiseStack)
C:\Users\minec\AppData\Local\arduino\sketches\CBAA8D2BDA3D583126B4F168E555FB8A/..\..\cores\69cc2d20a9c0859fc6838a3a84e0426a\core.a(port_nrf52_systick.c.o)
                              C:\Users\minec\AppData\Local\arduino\sketches\CBAA8D2BDA3D583126B4F168E555FB8A/..\..\cores\69cc2d20a9c0859fc6838a3a84e0426a\core.a(port_nrf52.c.o) (vPortSetupTimerInterrupt)
C:\Users\minec\AppData\Local\arduino\sketches\CBAA8D2BDA3D583126B4F168E555FB8A/..\..\cores\69cc2d20a9c0859fc6838a3a84e0426a\core.a(queue.c.o)
                              C:\Users\minec\AppData\Local\arduino\sketches\CBAA8D2BDA3D583126B4F168E555FB8A/..\..\cores\69cc2d20a9c0859fc6838a3a84e0426a\core.a(timers.c.o) (xQueueGenericCreateStatic)
C:\Users\minec\AppData\Local\arduino\sketches\CBAA8D2BDA3D583126B4F168E555FB8A/..\..\cores\69cc2d20a9c0859fc6838a3a84e0426a\core.a(static_tasks.c.o)
                              C:\Users\minec\AppData\Local\arduino\sketches\CBAA8D2BDA3D583126B4F168E555FB8A/..\..\cores\69cc2d20a9c0859fc6838a3a84e0426a\core.a(tasks.c.o) (vApplicationGetIdleTaskMemory)
C:\Users\minec\AppData\Local\arduino\sketches\CBAA8D2BDA3D583126B4F168E555FB8A/..\..\cores\69cc2d20a9c0859fc6838a3a84e0426a\core.a(printf.c.o)
                              C:\Users\minec\AppData\Local\arduino\sketches\CBAA8D2BDA3D583126B4F168E555FB8A/..\..\cores\69cc2d20a9c0859fc6838a3a84e0426a\core.a(debug_utils.cpp.o) (snprintf)
C:\Users\minec\AppData\Local\arduino\sketches\CBAA8D2BDA3D583126B4F168E555FB8A/..\..\cores\69cc2d20a9c0859fc6838a3a84e0426a\core.a(putchar.cpp.o)
                              C:\Users\minec\AppData\Local\arduino\sketches\CBAA8D2BDA3D583126B4F168E555FB8A/..\..\cores\69cc2d20a9c0859fc6838a3a84e0426a\core.a(printf.c.o) (_putchar)
C:\Users\minec\AppData\Local\arduino\sketches\CBAA8D2BDA3D583126B4F168E555FB8A/..\..\cores\69cc2d20a9c0859fc6838a3a84e0426a\core.a(new.cpp.o)
                              C:\Users\minec\AppData\Local\arduino\sketches\CBAA8D2BDA3D583126B4F168E555FB8A/..\..\cores\69cc2d20a9c0859fc6838a3a84e0426a\core.a(Uart.cpp.o) (operator delete(void*, unsigned int))
C:\Users\minec\AppData\Local\arduino\sketches\CBAA8D2BDA3D583126B4F168E555FB8A/..\..\cores\69cc2d20a9c0859fc6838a3a84e0426a\core.a(nrfx_clock.c.o)
                              C:\Users\minec\AppData\Local\arduino\sketches\CBAA8D2BDA3D583126B4F168E555FB8A/..\..\cores\69cc2d20a9c0859fc6838a3a84e0426a\core.a(wiring.c.o) (nrfx_clock_init)
C:\Users\minec\AppData\Local\arduino\sketches\CBAA8D2BDA3D583126B4F168E555FB8A/..\..\cores\69cc2d20a9c0859fc6838a3a84e0426a\core.a(nrfx_power.c.o)
                              C:\Users\minec\AppData\Local\arduino\sketches\CBAA8D2BDA3D583126B4F168E555FB8A/..\..\cores\69cc2d20a9c0859fc6838a3a84e0426a\core.a(nrfx_clock.c.o) (nrfx_power_irq_enabled)
C:\Users\minec\AppData\Local\arduino\sketches\CBAA8D2BDA3D583126B4F168E555FB8A/..\..\cores\69cc2d20a9c0859fc6838a3a84e0426a\core.a(RingBuffer.cpp.o)
                              C:\Users\minec\AppData\Local\arduino\sketches\CBAA8D2BDA3D583126B4F168E555FB8A/..\..\cores\69cc2d20a9c0859fc6838a3a84e0426a\core.a(Uart.cpp.o) (RingBuffer::RingBuffer())
C:\Users\minec\AppData\Local\arduino\sketches\CBAA8D2BDA3D583126B4F168E555FB8A/..\..\cores\69cc2d20a9c0859fc6838a3a84e0426a\core.a(port.c.o)
                              C:\Users\minec\AppData\Local\arduino\sketches\CBAA8D2BDA3D583126B4F168E555FB8A/..\..\cores\69cc2d20a9c0859fc6838a3a84e0426a\core.a(port_nrf52.c.o) (vPortStartFirstTask)
C:\Users\minec\AppData\Local\arduino\sketches\CBAA8D2BDA3D583126B4F168E555FB8A/..\..\cores\69cc2d20a9c0859fc6838a3a84e0426a\core.a(malloc.c.o)
                              C:\Users\minec\AppData\Local\arduino\sketches\CBAA8D2BDA3D583126B4F168E555FB8A/..\..\cores\69cc2d20a9c0859fc6838a3a84e0426a\core.a(putchar.cpp.o) (malloc)
c:/users/minec/appdata/local/arduino15/packages/n-able-arduino/tools/gcc-arm-none-eabi/10.3.1-2.1/bin/../lib/gcc/arm-none-eabi/10.3.1/../../../../arm-none-eabi/lib/thumb/v7e-m/nofp\libstdc++_nano.a(atexit_arm.o)
                              C:\Users\minec\AppData\Local\arduino\sketches\CBAA8D2BDA3D583126B4F168E555FB8A/..\..\cores\69cc2d20a9c0859fc6838a3a84e0426a\core.a(rtos.cpp.o) (__aeabi_atexit)
c:/users/minec/appdata/local/arduino15/packages/n-able-arduino/tools/gcc-arm-none-eabi/10.3.1-2.1/bin/../lib/gcc/arm-none-eabi/10.3.1/thumb/v7e-m/nofp\libgcc.a(_arm_muldf3.o)
                              C:\Users\minec\AppData\Local\arduino\sketches\CBAA8D2BDA3D583126B4F168E555FB8A/..\..\cores\69cc2d20a9c0859fc6838a3a84e0426a\core.a(Print.cpp.o) (__aeabi_dmul)
c:/users/minec/appdata/local/arduino15/packages/n-able-arduino/tools/gcc-arm-none-eabi/10.3.1-2.1/bin/../lib/gcc/arm-none-eabi/10.3.1/thumb/v7e-m/nofp\libgcc.a(_arm_addsubdf3.o)
                              C:\Users\minec\AppData\Local\arduino\sketches\CBAA8D2BDA3D583126B4F168E555FB8A/..\..\cores\69cc2d20a9c0859fc6838a3a84e0426a\core.a(Print.cpp.o) (__aeabi_dsub)
c:/users/minec/appdata/local/arduino15/packages/n-able-arduino/tools/gcc-arm-none-eabi/10.3.1-2.1/bin/../lib/gcc/arm-none-eabi/10.3.1/thumb/v7e-m/nofp\libgcc.a(_arm_muldivdf3.o)
                              C:\Users\minec\AppData\Local\arduino\sketches\CBAA8D2BDA3D583126B4F168E555FB8A/..\..\cores\69cc2d20a9c0859fc6838a3a84e0426a\core.a(Print.cpp.o) (__aeabi_ddiv)
c:/users/minec/appdata/local/arduino15/packages/n-able-arduino/tools/gcc-arm-none-eabi/10.3.1-2.1/bin/../lib/gcc/arm-none-eabi/10.3.1/thumb/v7e-m/nofp\libgcc.a(_arm_cmpdf2.o)
                              C:\Users\minec\AppData\Local\arduino\sketches\CBAA8D2BDA3D583126B4F168E555FB8A/..\..\cores\69cc2d20a9c0859fc6838a3a84e0426a\core.a(printf.c.o) (__aeabi_dcmpeq)
c:/users/minec/appdata/local/arduino15/packages/n-able-arduino/tools/gcc-arm-none-eabi/10.3.1-2.1/bin/../lib/gcc/arm-none-eabi/10.3.1/thumb/v7e-m/nofp\libgcc.a(_arm_unorddf2.o)
                              C:\Users\minec\AppData\Local\arduino\sketches\CBAA8D2BDA3D583126B4F168E555FB8A/..\..\cores\69cc2d20a9c0859fc6838a3a84e0426a\core.a(Print.cpp.o) (__aeabi_dcmpun)
c:/users/minec/appdata/local/arduino15/packages/n-able-arduino/tools/gcc-arm-none-eabi/10.3.1-2.1/bin/../lib/gcc/arm-none-eabi/10.3.1/thumb/v7e-m/nofp\libgcc.a(_arm_fixdfsi.o)
                              C:\Users\minec\AppData\Local\arduino\sketches\CBAA8D2BDA3D583126B4F168E555FB8A/..\..\cores\69cc2d20a9c0859fc6838a3a84e0426a\core.a(Print.cpp.o) (__aeabi_d2iz)
c:/users/minec/appdata/local/arduino15/packages/n-able-arduino/tools/gcc-arm-none-eabi/10.3.1-2.1/bin/../lib/gcc/arm-none-eabi/10.3.1/thumb/v7e-m/nofp\libgcc.a(_arm_fixunsdfsi.o)
                              C:\Users\minec\AppData\Local\arduino\sketches\CBAA8D2BDA3D583126B4F168E555FB8A/..\..\cores\69cc2d20a9c0859fc6838a3a84e0426a\core.a(Print.cpp.o) (__aeabi_d2uiz)
c:/users/minec/appdata/local/arduino15/packages/n-able-arduino/tools/gcc-arm-none-eabi/10.3.1-2.1/bin/../lib/gcc/arm-none-eabi/10.3.1/thumb/v7e-m/nofp\libgcc.a(_aeabi_ldivmod.o)
                              C:\Users\minec\AppData\Local\arduino\sketches\CBAA8D2BDA3D583126B4F168E555FB8A/..\..\cores\69cc2d20a9c0859fc6838a3a84e0426a\core.a(printf.c.o) (__aeabi_ldivmod)
c:/users/minec/appdata/local/arduino15/packages/n-able-arduino/tools/gcc-arm-none-eabi/10.3.1-2.1/bin/../lib/gcc/arm-none-eabi/10.3.1/thumb/v7e-m/nofp\libgcc.a(_aeabi_uldivmod.o)
                              C:\Users\minec\AppData\Local\arduino\sketches\CBAA8D2BDA3D583126B4F168E555FB8A/..\..\cores\69cc2d20a9c0859fc6838a3a84e0426a\core.a(printf.c.o) (__aeabi_uldivmod)
c:/users/minec/appdata/local/arduino15/packages/n-able-arduino/tools/gcc-arm-none-eabi/10.3.1-2.1/bin/../lib/gcc/arm-none-eabi/10.3.1/thumb/v7e-m/nofp\libgcc.a(_fixdfdi.o)
                              C:\Users\minec\AppData\Local\arduino\sketches\CBAA8D2BDA3D583126B4F168E555FB8A/..\..\cores\69cc2d20a9c0859fc6838a3a84e0426a\core.a(printf.c.o) (__aeabi_d2lz)
c:/users/minec/appdata/local/arduino15/packages/n-able-arduino/tools/gcc-arm-none-eabi/10.3.1-2.1/bin/../lib/gcc/arm-none-eabi/10.3.1/thumb/v7e-m/nofp\libgcc.a(_fixunsdfdi.o)
                              c:/users/minec/appdata/local/arduino15/packages/n-able-arduino/tools/gcc-arm-none-eabi/10.3.1-2.1/bin/../lib/gcc/arm-none-eabi/10.3.1/thumb/v7e-m/nofp\libgcc.a(_fixdfdi.o) (__aeabi_d2ulz)
c:/users/minec/appdata/local/arduino15/packages/n-able-arduino/tools/gcc-arm-none-eabi/10.3.1-2.1/bin/../lib/gcc/arm-none-eabi/10.3.1/thumb/v7e-m/nofp\libgcc.a(_udivmoddi4.o)
                              c:/users/minec/appdata/local/arduino15/packages/n-able-arduino/tools/gcc-arm-none-eabi/10.3.1-2.1/bin/../lib/gcc/arm-none-eabi/10.3.1/thumb/v7e-m/nofp\libgcc.a(_aeabi_ldivmod.o) (__udivmoddi4)
c:/users/minec/appdata/local/arduino15/packages/n-able-arduino/tools/gcc-arm-none-eabi/10.3.1-2.1/bin/../lib/gcc/arm-none-eabi/10.3.1/thumb/v7e-m/nofp\libgcc.a(unwind-arm.o)
                              c:/users/minec/appdata/local/arduino15/packages/n-able-arduino/tools/gcc-arm-none-eabi/10.3.1-2.1/bin/../lib/gcc/arm-none-eabi/10.3.1/thumb/v7e-m/nofp\libgcc.a(_fixdfdi.o) (__aeabi_unwind_cpp_pr0)
c:/users/minec/appdata/local/arduino15/packages/n-able-arduino/tools/gcc-arm-none-eabi/10.3.1-2.1/bin/../lib/gcc/arm-none-eabi/10.3.1/thumb/v7e-m/nofp\libgcc.a(libunwind.o)
                              c:/users/minec/appdata/local/arduino15/packages/n-able-arduino/tools/gcc-arm-none-eabi/10.3.1-2.1/bin/../lib/gcc/arm-none-eabi/10.3.1/thumb/v7e-m/nofp\libgcc.a(unwind-arm.o) (restore_core_regs)
c:/users/minec/appdata/local/arduino15/packages/n-able-arduino/tools/gcc-arm-none-eabi/10.3.1-2.1/bin/../lib/gcc/arm-none-eabi/10.3.1/thumb/v7e-m/nofp\libgcc.a(pr-support.o)
                              c:/users/minec/appdata/local/arduino15/packages/n-able-arduino/tools/gcc-arm-none-eabi/10.3.1-2.1/bin/../lib/gcc/arm-none-eabi/10.3.1/thumb/v7e-m/nofp\libgcc.a(unwind-arm.o) (__gnu_unwind_execute)
c:/users/minec/appdata/local/arduino15/packages/n-able-arduino/tools/gcc-arm-none-eabi/10.3.1-2.1/bin/../lib/gcc/arm-none-eabi/10.3.1/thumb/v7e-m/nofp\libgcc.a(_dvmd_tls.o)
                              c:/users/minec/appdata/local/arduino15/packages/n-able-arduino/tools/gcc-arm-none-eabi/10.3.1-2.1/bin/../lib/gcc/arm-none-eabi/10.3.1/thumb/v7e-m/nofp\libgcc.a(_aeabi_ldivmod.o) (__aeabi_ldiv0)
c:/users/minec/appdata/local/arduino15/packages/n-able-arduino/tools/gcc-arm-none-eabi/10.3.1-2.1/bin/../lib/gcc/arm-none-eabi/10.3.1/../../../../arm-none-eabi/lib/thumb/v7e-m/nofp\libc_nano.a(lib_a-abort.o)
                              c:/users/minec/appdata/local/arduino15/packages/n-able-arduino/tools/gcc-arm-none-eabi/10.3.1-2.1/bin/../lib/gcc/arm-none-eabi/10.3.1/thumb/v7e-m/nofp\libgcc.a(unwind-arm.o) (abort)
c:/users/minec/appdata/local/arduino15/packages/n-able-arduino/tools/gcc-arm-none-eabi/10.3.1-2.1/bin/../lib/gcc/arm-none-eabi/10.3.1/../../../../arm-none-eabi/lib/thumb/v7e-m/nofp\libc_nano.a(lib_a-cxa_atexit.o)
                              c:/users/minec/appdata/local/arduino15/packages/n-able-arduino/tools/gcc-arm-none-eabi/10.3.1-2.1/bin/../lib/gcc/arm-none-eabi/10.3.1/../../../../arm-none-eabi/lib/thumb/v7e-m/nofp\libstdc++_nano.a(atexit_arm.o) (__cxa_atexit)
c:/users/minec/appdata/local/arduino15/packages/n-able-arduino/tools/gcc-arm-none-eabi/10.3.1-2.1/bin/../lib/gcc/arm-none-eabi/10.3.1/../../../../arm-none-eabi/lib/thumb/v7e-m/nofp\libc_nano.a(lib_a-exit.o)
                              c:/users/minec/appdata/local/arduino15/packages/n-able-arduino/tools/gcc-arm-none-eabi/10.3.1-2.1/bin/../lib/gcc/arm-none-eabi/10.3.1/../../../../arm-none-eabi/lib/thumb/v7e-m/nofp/crt0.o (exit)
c:/users/minec/appdata/local/arduino15/packages/n-able-arduino/tools/gcc-arm-none-eabi/10.3.1-2.1/bin/../lib/gcc/arm-none-eabi/10.3.1/../../../../arm-none-eabi/lib/thumb/v7e-m/nofp\libc_nano.a(lib_a-impure.o)
                              c:/users/minec/appdata/local/arduino15/packages/n-able-arduino/tools/gcc-arm-none-eabi/10.3.1-2.1/bin/../lib/gcc/arm-none-eabi/10.3.1/../../../../arm-none-eabi/lib/thumb/v7e-m/nofp\libc_nano.a(lib_a-exit.o) (_global_impure_ptr)
c:/users/minec/appdata/local/arduino15/packages/n-able-arduino/tools/gcc-arm-none-eabi/10.3.1-2.1/bin/../lib/gcc/arm-none-eabi/10.3.1/../../../../arm-none-eabi/lib/thumb/v7e-m/nofp\libc_nano.a(lib_a-init.o)
                              c:/users/minec/appdata/local/arduino15/packages/n-able-arduino/tools/gcc-arm-none-eabi/10.3.1-2.1/bin/../lib/gcc/arm-none-eabi/10.3.1/../../../../arm-none-eabi/lib/thumb/v7e-m/nofp/crt0.o (__libc_init_array)
c:/users/minec/appdata/local/arduino15/packages/n-able-arduino/tools/gcc-arm-none-eabi/10.3.1-2.1/bin/../lib/gcc/arm-none-eabi/10.3.1/../../../../arm-none-eabi/lib/thumb/v7e-m/nofp\libc_nano.a(lib_a-memcpy-stub.o)
                              C:\Users\minec\AppData\Local\arduino\sketches\CBAA8D2BDA3D583126B4F168E555FB8A/..\..\cores\69cc2d20a9c0859fc6838a3a84e0426a\core.a(heap_4.c.o) (memcpy)
c:/users/minec/appdata/local/arduino15/packages/n-able-arduino/tools/gcc-arm-none-eabi/10.3.1-2.1/bin/../lib/gcc/arm-none-eabi/10.3.1/../../../../arm-none-eabi/lib/thumb/v7e-m/nofp\libc_nano.a(lib_a-memset.o)
                              c:/users/minec/appdata/local/arduino15/packages/n-able-arduino/tools/gcc-arm-none-eabi/10.3.1-2.1/bin/../lib/gcc/arm-none-eabi/10.3.1/../../../../arm-none-eabi/lib/thumb/v7e-m/nofp/crt0.o (memset)
c:/users/minec/appdata/local/arduino15/packages/n-able-arduino/tools/gcc-arm-none-eabi/10.3.1-2.1/bin/../lib/gcc/arm-none-eabi/10.3.1/../../../../arm-none-eabi/lib/thumb/v7e-m/nofp\libc_nano.a(lib_a-on_exit_args.o)
                              c:/users/minec/appdata/local/arduino15/packages/n-able-arduino/tools/gcc-arm-none-eabi/10.3.1-2.1/bin/../lib/gcc/arm-none-eabi/10.3.1/../../../../arm-none-eabi/lib/thumb/v7e-m/nofp\libc_nano.a(lib_a-cxa_atexit.o) (__on_exit_args)
c:/users/minec/appdata/local/arduino15/packages/n-able-arduino/tools/gcc-arm-none-eabi/10.3.1-2.1/bin/../lib/gcc/arm-none-eabi/10.3.1/../../../../arm-none-eabi/lib/thumb/v7e-m/nofp\libc_nano.a(lib_a-signal.o)
                              c:/users/minec/appdata/local/arduino15/packages/n-able-arduino/tools/gcc-arm-none-eabi/10.3.1-2.1/bin/../lib/gcc/arm-none-eabi/10.3.1/../../../../arm-none-eabi/lib/thumb/v7e-m/nofp\libc_nano.a(lib_a-abort.o) (raise)
c:/users/minec/appdata/local/arduino15/packages/n-able-arduino/tools/gcc-arm-none-eabi/10.3.1-2.1/bin/../lib/gcc/arm-none-eabi/10.3.1/../../../../arm-none-eabi/lib/thumb/v7e-m/nofp\libc_nano.a(lib_a-signalr.o)
                              c:/users/minec/appdata/local/arduino15/packages/n-able-arduino/tools/gcc-arm-none-eabi/10.3.1-2.1/bin/../lib/gcc/arm-none-eabi/10.3.1/../../../../arm-none-eabi/lib/thumb/v7e-m/nofp\libc_nano.a(lib_a-signal.o) (_kill_r)
c:/users/minec/appdata/local/arduino15/packages/n-able-arduino/tools/gcc-arm-none-eabi/10.3.1-2.1/bin/../lib/gcc/arm-none-eabi/10.3.1/../../../../arm-none-eabi/lib/thumb/v7e-m/nofp\libc_nano.a(lib_a-strlen.o)
                              C:\Users\minec\AppData\Local\arduino\sketches\CBAA8D2BDA3D583126B4F168E555FB8A/..\..\cores\69cc2d20a9c0859fc6838a3a84e0426a\core.a(Print.cpp.o) (strlen)
c:/users/minec/appdata/local/arduino15/packages/n-able-arduino/tools/gcc-arm-none-eabi/10.3.1-2.1/bin/../lib/gcc/arm-none-eabi/10.3.1/../../../../arm-none-eabi/lib/thumb/v7e-m/nofp\libc_nano.a(lib_a-reent.o)
                              c:/users/minec/appdata/local/arduino15/packages/n-able-arduino/tools/gcc-arm-none-eabi/10.3.1-2.1/bin/../lib/gcc/arm-none-eabi/10.3.1/../../../../arm-none-eabi/lib/thumb/v7e-m/nofp\libc_nano.a(lib_a-signalr.o) (errno)
c:/users/minec/appdata/local/arduino15/packages/n-able-arduino/tools/gcc-arm-none-eabi/10.3.1-2.1/bin/../lib/gcc/arm-none-eabi/10.3.1/../../../../arm-none-eabi/lib/thumb/v7e-m/nofp\libnosys.a(getpid.o)
                              c:/users/minec/appdata/local/arduino15/packages/n-able-arduino/tools/gcc-arm-none-eabi/10.3.1-2.1/bin/../lib/gcc/arm-none-eabi/10.3.1/../../../../arm-none-eabi/lib/thumb/v7e-m/nofp\libc_nano.a(lib_a-signalr.o) (_getpid)
c:/users/minec/appdata/local/arduino15/packages/n-able-arduino/tools/gcc-arm-none-eabi/10.3.1-2.1/bin/../lib/gcc/arm-none-eabi/10.3.1/../../../../arm-none-eabi/lib/thumb/v7e-m/nofp\libnosys.a(kill.o)
                              c:/users/minec/appdata/local/arduino15/packages/n-able-arduino/tools/gcc-arm-none-eabi/10.3.1-2.1/bin/../lib/gcc/arm-none-eabi/10.3.1/../../../../arm-none-eabi/lib/thumb/v7e-m/nofp\libc_nano.a(lib_a-signalr.o) (_kill)
c:/users/minec/appdata/local/arduino15/packages/n-able-arduino/tools/gcc-arm-none-eabi/10.3.1-2.1/bin/../lib/gcc/arm-none-eabi/10.3.1/../../../../arm-none-eabi/lib/thumb/v7e-m/nofp\libnosys.a(_exit.o)
                              c:/users/minec/appdata/local/arduino15/packages/n-able-arduino/tools/gcc-arm-none-eabi/10.3.1-2.1/bin/../lib/gcc/arm-none-eabi/10.3.1/../../../../arm-none-eabi/lib/thumb/v7e-m/nofp\libc_nano.a(lib_a-abort.o) (_exit)

Discarded input sections

 .text          0x0000000000000000        0x0 c:/users/minec/appdata/local/arduino15/packages/n-able-arduino/tools/gcc-arm-none-eabi/10.3.1-2.1/bin/../lib/gcc/arm-none-eabi/10.3.1/thumb/v7e-m/nofp/crti.o
 .data          0x0000000000000000        0x0 c:/users/minec/appdata/local/arduino15/packages/n-able-arduino/tools/gcc-arm-none-eabi/10.3.1-2.1/bin/../lib/gcc/arm-none-eabi/10.3.1/thumb/v7e-m/nofp/crti.o
 .bss           0x0000000000000000        0x0 c:/users/minec/appdata/local/arduino15/packages/n-able-arduino/tools/gcc-arm-none-eabi/10.3.1-2.1/bin/../lib/gcc/arm-none-eabi/10.3.1/thumb/v7e-m/nofp/crti.o
 .text          0x0000000000000000        0x0 c:/users/minec/appdata/local/arduino15/packages/n-able-arduino/tools/gcc-arm-none-eabi/10.3.1-2.1/bin/../lib/gcc/arm-none-eabi/10.3.1/thumb/v7e-m/nofp/crtbegin.o
 .data          0x0000000000000000        0x0 c:/users/minec/appdata/local/arduino15/packages/n-able-arduino/tools/gcc-arm-none-eabi/10.3.1-2.1/bin/../lib/gcc/arm-none-eabi/10.3.1/thumb/v7e-m/nofp/crtbegin.o
 .bss           0x0000000000000000        0x0 c:/users/minec/appdata/local/arduino15/packages/n-able-arduino/tools/gcc-arm-none-eabi/10.3.1-2.1/bin/../lib/gcc/arm-none-eabi/10.3.1/thumb/v7e-m/nofp/crtbegin.o
 .rodata.all_implied_fbits
                0x0000000000000000       0x24 c:/users/minec/appdata/local/arduino15/packages/n-able-arduino/tools/gcc-arm-none-eabi/10.3.1-2.1/bin/../lib/gcc/arm-none-eabi/10.3.1/thumb/v7e-m/nofp/crtbegin.o
 .data          0x0000000000000000        0x0 c:/users/minec/appdata/local/arduino15/packages/n-able-arduino/tools/gcc-arm-none-eabi/10.3.1-2.1/bin/../lib/gcc/arm-none-eabi/10.3.1/../../../../arm-none-eabi/lib/thumb/v7e-m/nofp/crt0.o
 .bss           0x0000000000000000        0x0 c:/users/minec/appdata/local/arduino15/packages/n-able-arduino/tools/gcc-arm-none-eabi/10.3.1-2.1/bin/../lib/gcc/arm-none-eabi/10.3.1/../../../../arm-none-eabi/lib/thumb/v7e-m/nofp/crt0.o
 .ARM.extab     0x0000000000000000        0x0 c:/users/minec/appdata/local/arduino15/packages/n-able-arduino/tools/gcc-arm-none-eabi/10.3.1-2.1/bin/../lib/gcc/arm-none-eabi/10.3.1/../../../../arm-none-eabi/lib/thumb/v7e-m/nofp/crt0.o
 .text          0x0000000000000000        0x0 C:\Users\minec\AppData\Local\arduino\sketches\CBAA8D2BDA3D583126B4F168E555FB8A\sketch\BlinkLEDs.ino.cpp.o
 .data          0x0000000000000000        0x0 C:\Users\minec\AppData\Local\arduino\sketches\CBAA8D2BDA3D583126B4F168E555FB8A\sketch\BlinkLEDs.ino.cpp.o
 .bss           0x0000000000000000        0x0 C:\Users\minec\AppData\Local\arduino\sketches\CBAA8D2BDA3D583126B4F168E555FB8A\sketch\BlinkLEDs.ino.cpp.o
 .text          0x0000000000000000        0x0 C:\Users\minec\AppData\Local\arduino\sketches\CBAA8D2BDA3D583126B4F168E555FB8A\core\variant.cpp.o
 .data          0x0000000000000000        0x0 C:\Users\minec\AppData\Local\arduino\sketches\CBAA8D2BDA3D583126B4F168E555FB8A\core\variant.cpp.o
 .bss           0x0000000000000000        0x0 C:\Users\minec\AppData\Local\arduino\sketches\CBAA8D2BDA3D583126B4F168E555FB8A\core\variant.cpp.o
 .text          0x0000000000000000        0x0 C:\Users\minec\AppData\Local\arduino\sketches\CBAA8D2BDA3D583126B4F168E555FB8A/..\..\cores\69cc2d20a9c0859fc6838a3a84e0426a\core.a(delay.c.o)
 .data          0x0000000000000000        0x0 C:\Users\minec\AppData\Local\arduino\sketches\CBAA8D2BDA3D583126B4F168E555FB8A/..\..\cores\69cc2d20a9c0859fc6838a3a84e0426a\core.a(delay.c.o)
 .bss           0x0000000000000000        0x0 C:\Users\minec\AppData\Local\arduino\sketches\CBAA8D2BDA3D583126B4F168E555FB8A/..\..\cores\69cc2d20a9c0859fc6838a3a84e0426a\core.a(delay.c.o)
 .text.millis   0x0000000000000000       0x10 C:\Users\minec\AppData\Local\arduino\sketches\CBAA8D2BDA3D583126B4F168E555FB8A/..\..\cores\69cc2d20a9c0859fc6838a3a84e0426a\core.a(delay.c.o)
 .text.micros   0x0000000000000000        0xe C:\Users\minec\AppData\Local\arduino\sketches\CBAA8D2BDA3D583126B4F168E555FB8A/..\..\cores\69cc2d20a9c0859fc6838a3a84e0426a\core.a(delay.c.o)
 .text          0x0000000000000000        0x0 C:\Users\minec\AppData\Local\arduino\sketches\CBAA8D2BDA3D583126B4F168E555FB8A/..\..\cores\69cc2d20a9c0859fc6838a3a84e0426a\core.a(tasks.c.o)
 .data          0x0000000000000000        0x0 C:\Users\minec\AppData\Local\arduino\sketches\CBAA8D2BDA3D583126B4F168E555FB8A/..\..\cores\69cc2d20a9c0859fc6838a3a84e0426a\core.a(tasks.c.o)
 .bss           0x0000000000000000        0x0 C:\Users\minec\AppData\Local\arduino\sketches\CBAA8D2BDA3D583126B4F168E555FB8A/..\..\cores\69cc2d20a9c0859fc6838a3a84e0426a\core.a(tasks.c.o)
 .text.xTaskCreate
                0x0000000000000000       0x5a C:\Users\minec\AppData\Local\arduino\sketches\CBAA8D2BDA3D583126B4F168E555FB8A/..\..\cores\69cc2d20a9c0859fc6838a3a84e0426a\core.a(tasks.c.o)
 .text.vTaskDelete
                0x0000000000000000       0xb8 C:\Users\minec\AppData\Local\arduino\sketches\CBAA8D2BDA3D583126B4F168E555FB8A/..\..\cores\69cc2d20a9c0859fc6838a3a84e0426a\core.a(tasks.c.o)
 .text.eTaskGetState
                0x0000000000000000       0x70 C:\Users\minec\AppData\Local\arduino\sketches\CBAA8D2BDA3D583126B4F168E555FB8A/..\..\cores\69cc2d20a9c0859fc6838a3a84e0426a\core.a(tasks.c.o)
 .text.uxTaskPriorityGet
                0x0000000000000000       0x1c C:\Users\minec\AppData\Local\arduino\sketches\CBAA8D2BDA3D583126B4F168E555FB8A/..\..\cores\69cc2d20a9c0859fc6838a3a84e0426a\core.a(tasks.c.o)
 .text.uxTaskPriorityGetFromISR
                0x0000000000000000       0x1c C:\Users\minec\AppData\Local\arduino\sketches\CBAA8D2BDA3D583126B4F168E555FB8A/..\..\cores\69cc2d20a9c0859fc6838a3a84e0426a\core.a(tasks.c.o)
 .text.vTaskPrioritySet
                0x0000000000000000       0xc8 C:\Users\minec\AppData\Local\arduino\sketches\CBAA8D2BDA3D583126B4F168E555FB8A/..\..\cores\69cc2d20a9c0859fc6838a3a84e0426a\core.a(tasks.c.o)
 .text.vTaskResume
                0x0000000000000000       0x88 C:\Users\minec\AppData\Local\arduino\sketches\CBAA8D2BDA3D583126B4F168E555FB8A/..\..\cores\69cc2d20a9c0859fc6838a3a84e0426a\core.a(tasks.c.o)
 .text.xTaskResumeFromISR
                0x0000000000000000       0x90 C:\Users\minec\AppData\Local\arduino\sketches\CBAA8D2BDA3D583126B4F168E555FB8A/..\..\cores\69cc2d20a9c0859fc6838a3a84e0426a\core.a(tasks.c.o)
 .text.vTaskEndScheduler
                0x0000000000000000       0x10 C:\Users\minec\AppData\Local\arduino\sketches\CBAA8D2BDA3D583126B4F168E555FB8A/..\..\cores\69cc2d20a9c0859fc6838a3a84e0426a\core.a(tasks.c.o)
 .text.xTaskGetTickCountFromISR
                0x0000000000000000        0xc C:\Users\minec\AppData\Local\arduino\sketches\CBAA8D2BDA3D583126B4F168E555FB8A/..\..\cores\69cc2d20a9c0859fc6838a3a84e0426a\core.a(tasks.c.o)
 .text.uxTaskGetNumberOfTasks
                0x0000000000000000        0xc C:\Users\minec\AppData\Local\arduino\sketches\CBAA8D2BDA3D583126B4F168E555FB8A/..\..\cores\69cc2d20a9c0859fc6838a3a84e0426a\core.a(tasks.c.o)
 .text.pcTaskGetName
                0x0000000000000000       0x10 C:\Users\minec\AppData\Local\arduino\sketches\CBAA8D2BDA3D583126B4F168E555FB8A/..\..\cores\69cc2d20a9c0859fc6838a3a84e0426a\core.a(tasks.c.o)
 .text.xTaskGetIdleTaskHandle
                0x0000000000000000        0xc C:\Users\minec\AppData\Local\arduino\sketches\CBAA8D2BDA3D583126B4F168E555FB8A/..\..\cores\69cc2d20a9c0859fc6838a3a84e0426a\core.a(tasks.c.o)
 .text.xTaskDelayUntil
                0x0000000000000000       0x5c C:\Users\minec\AppData\Local\arduino\sketches\CBAA8D2BDA3D583126B4F168E555FB8A/..\..\cores\69cc2d20a9c0859fc6838a3a84e0426a\core.a(tasks.c.o)
 .text.xTaskCatchUpTicks
                0x0000000000000000       0x1c C:\Users\minec\AppData\Local\arduino\sketches\CBAA8D2BDA3D583126B4F168E555FB8A/..\..\cores\69cc2d20a9c0859fc6838a3a84e0426a\core.a(tasks.c.o)
 .text.vTaskSuspend
                0x0000000000000000       0xbc C:\Users\minec\AppData\Local\arduino\sketches\CBAA8D2BDA3D583126B4F168E555FB8A/..\..\cores\69cc2d20a9c0859fc6838a3a84e0426a\core.a(tasks.c.o)
 .text.vTaskPlaceOnUnorderedEventList
                0x0000000000000000       0x28 C:\Users\minec\AppData\Local\arduino\sketches\CBAA8D2BDA3D583126B4F168E555FB8A/..\..\cores\69cc2d20a9c0859fc6838a3a84e0426a\core.a(tasks.c.o)
 .text.vTaskRemoveFromUnorderedEventList
                0x0000000000000000       0x5c C:\Users\minec\AppData\Local\arduino\sketches\CBAA8D2BDA3D583126B4F168E555FB8A/..\..\cores\69cc2d20a9c0859fc6838a3a84e0426a\core.a(tasks.c.o)
 .text.vTaskSetTimeOutState
                0x0000000000000000       0x24 C:\Users\minec\AppData\Local\arduino\sketches\CBAA8D2BDA3D583126B4F168E555FB8A/..\..\cores\69cc2d20a9c0859fc6838a3a84e0426a\core.a(tasks.c.o)
 .text.uxTaskGetStackHighWaterMark
                0x0000000000000000       0x20 C:\Users\minec\AppData\Local\arduino\sketches\CBAA8D2BDA3D583126B4F168E555FB8A/..\..\cores\69cc2d20a9c0859fc6838a3a84e0426a\core.a(tasks.c.o)
 .text.xTaskGetCurrentTaskHandle
                0x0000000000000000        0xc C:\Users\minec\AppData\Local\arduino\sketches\CBAA8D2BDA3D583126B4F168E555FB8A/..\..\cores\69cc2d20a9c0859fc6838a3a84e0426a\core.a(tasks.c.o)
 .text.xTaskPriorityInherit
                0x0000000000000000       0x94 C:\Users\minec\AppData\Local\arduino\sketches\CBAA8D2BDA3D583126B4F168E555FB8A/..\..\cores\69cc2d20a9c0859fc6838a3a84e0426a\core.a(tasks.c.o)
 .text.vTaskPriorityDisinheritAfterTimeout
                0x0000000000000000       0x78 C:\Users\minec\AppData\Local\arduino\sketches\CBAA8D2BDA3D583126B4F168E555FB8A/..\..\cores\69cc2d20a9c0859fc6838a3a84e0426a\core.a(tasks.c.o)
 .text.uxTaskResetEventItemValue
                0x0000000000000000       0x18 C:\Users\minec\AppData\Local\arduino\sketches\CBAA8D2BDA3D583126B4F168E555FB8A/..\..\cores\69cc2d20a9c0859fc6838a3a84e0426a\core.a(tasks.c.o)
 .text.pvTaskIncrementMutexHeldCount
                0x0000000000000000       0x18 C:\Users\minec\AppData\Local\arduino\sketches\CBAA8D2BDA3D583126B4F168E555FB8A/..\..\cores\69cc2d20a9c0859fc6838a3a84e0426a\core.a(tasks.c.o)
 .text.ulTaskGenericNotifyTake
                0x0000000000000000       0x80 C:\Users\minec\AppData\Local\arduino\sketches\CBAA8D2BDA3D583126B4F168E555FB8A/..\..\cores\69cc2d20a9c0859fc6838a3a84e0426a\core.a(tasks.c.o)
 .text.xTaskGenericNotifyWait
                0x0000000000000000       0xac C:\Users\minec\AppData\Local\arduino\sketches\CBAA8D2BDA3D583126B4F168E555FB8A/..\..\cores\69cc2d20a9c0859fc6838a3a84e0426a\core.a(tasks.c.o)
 .text.xTaskGenericNotify
                0x0000000000000000       0xd4 C:\Users\minec\AppData\Local\arduino\sketches\CBAA8D2BDA3D583126B4F168E555FB8A/..\..\cores\69cc2d20a9c0859fc6838a3a84e0426a\core.a(tasks.c.o)
 .text.xTaskGenericNotifyFromISR
                0x0000000000000000       0xe0 C:\Users\minec\AppData\Local\arduino\sketches\CBAA8D2BDA3D583126B4F168E555FB8A/..\..\cores\69cc2d20a9c0859fc6838a3a84e0426a\core.a(tasks.c.o)
 .text.vTaskGenericNotifyGiveFromISR
                0x0000000000000000       0x98 C:\Users\minec\AppData\Local\arduino\sketches\CBAA8D2BDA3D583126B4F168E555FB8A/..\..\cores\69cc2d20a9c0859fc6838a3a84e0426a\core.a(tasks.c.o)
 .text.xTaskGenericNotifyStateClear
                0x0000000000000000       0x30 C:\Users\minec\AppData\Local\arduino\sketches\CBAA8D2BDA3D583126B4F168E555FB8A/..\..\cores\69cc2d20a9c0859fc6838a3a84e0426a\core.a(tasks.c.o)
 .text.ulTaskGenericNotifyValueClear
                0x0000000000000000       0x2c C:\Users\minec\AppData\Local\arduino\sketches\CBAA8D2BDA3D583126B4F168E555FB8A/..\..\cores\69cc2d20a9c0859fc6838a3a84e0426a\core.a(tasks.c.o)
 .text          0x0000000000000000        0x0 C:\Users\minec\AppData\Local\arduino\sketches\CBAA8D2BDA3D583126B4F168E555FB8A/..\..\cores\69cc2d20a9c0859fc6838a3a84e0426a\core.a(timers.c.o)
 .data          0x0000000000000000        0x0 C:\Users\minec\AppData\Local\arduino\sketches\CBAA8D2BDA3D583126B4F168E555FB8A/..\..\cores\69cc2d20a9c0859fc6838a3a84e0426a\core.a(timers.c.o)
 .bss           0x0000000000000000        0x0 C:\Users\minec\AppData\Local\arduino\sketches\CBAA8D2BDA3D583126B4F168E555FB8A/..\..\cores\69cc2d20a9c0859fc6838a3a84e0426a\core.a(timers.c.o)
 .text.xTimerCreate
                0x0000000000000000       0x46 C:\Users\minec\AppData\Local\arduino\sketches\CBAA8D2BDA3D583126B4F168E555FB8A/..\..\cores\69cc2d20a9c0859fc6838a3a84e0426a\core.a(timers.c.o)
 .text.xTimerCreateStatic
                0x0000000000000000       0x40 C:\Users\minec\AppData\Local\arduino\sketches\CBAA8D2BDA3D583126B4F168E555FB8A/..\..\cores\69cc2d20a9c0859fc6838a3a84e0426a\core.a(timers.c.o)
 .text.xTimerGetTimerDaemonTaskHandle
                0x0000000000000000        0xc C:\Users\minec\AppData\Local\arduino\sketches\CBAA8D2BDA3D583126B4F168E555FB8A/..\..\cores\69cc2d20a9c0859fc6838a3a84e0426a\core.a(timers.c.o)
 .text.xTimerGetPeriod
                0x0000000000000000        0x4 C:\Users\minec\AppData\Local\arduino\sketches\CBAA8D2BDA3D583126B4F168E555FB8A/..\..\cores\69cc2d20a9c0859fc6838a3a84e0426a\core.a(timers.c.o)
 .text.vTimerSetReloadMode
                0x0000000000000000       0x26 C:\Users\minec\AppData\Local\arduino\sketches\CBAA8D2BDA3D583126B4F168E555FB8A/..\..\cores\69cc2d20a9c0859fc6838a3a84e0426a\core.a(timers.c.o)
 .text.uxTimerGetReloadMode
                0x0000000000000000       0x18 C:\Users\minec\AppData\Local\arduino\sketches\CBAA8D2BDA3D583126B4F168E555FB8A/..\..\cores\69cc2d20a9c0859fc6838a3a84e0426a\core.a(timers.c.o)
 .text.xTimerGetExpiryTime
                0x0000000000000000        0x4 C:\Users\minec\AppData\Local\arduino\sketches\CBAA8D2BDA3D583126B4F168E555FB8A/..\..\cores\69cc2d20a9c0859fc6838a3a84e0426a\core.a(timers.c.o)
 .text.pcTimerGetName
                0x0000000000000000        0x4 C:\Users\minec\AppData\Local\arduino\sketches\CBAA8D2BDA3D583126B4F168E555FB8A/..\..\cores\69cc2d20a9c0859fc6838a3a84e0426a\core.a(timers.c.o)
 .text.xTimerIsTimerActive
                0x0000000000000000       0x18 C:\Users\minec\AppData\Local\arduino\sketches\CBAA8D2BDA3D583126B4F168E555FB8A/..\..\cores\69cc2d20a9c0859fc6838a3a84e0426a\core.a(timers.c.o)
 .text.pvTimerGetTimerID
                0x0000000000000000       0x12 C:\Users\minec\AppData\Local\arduino\sketches\CBAA8D2BDA3D583126B4F168E555FB8A/..\..\cores\69cc2d20a9c0859fc6838a3a84e0426a\core.a(timers.c.o)
 .text.vTimerSetTimerID
                0x0000000000000000       0x14 C:\Users\minec\AppData\Local\arduino\sketches\CBAA8D2BDA3D583126B4F168E555FB8A/..\..\cores\69cc2d20a9c0859fc6838a3a84e0426a\core.a(timers.c.o)
 .text.xTimerPendFunctionCallFromISR
                0x0000000000000000       0x28 C:\Users\minec\AppData\Local\arduino\sketches\CBAA8D2BDA3D583126B4F168E555FB8A/..\..\cores\69cc2d20a9c0859fc6838a3a84e0426a\core.a(timers.c.o)
 .text.xTimerPendFunctionCall
                0x0000000000000000       0x28 C:\Users\minec\AppData\Local\arduino\sketches\CBAA8D2BDA3D583126B4F168E555FB8A/..\..\cores\69cc2d20a9c0859fc6838a3a84e0426a\core.a(timers.c.o)
 .text          0x0000000000000000        0x0 C:\Users\minec\AppData\Local\arduino\sketches\CBAA8D2BDA3D583126B4F168E555FB8A/..\..\cores\69cc2d20a9c0859fc6838a3a84e0426a\core.a(main.cpp.o)
 .data          0x0000000000000000        0x0 C:\Users\minec\AppData\Local\arduino\sketches\CBAA8D2BDA3D583126B4F168E555FB8A/..\..\cores\69cc2d20a9c0859fc6838a3a84e0426a\core.a(main.cpp.o)
 .bss           0x0000000000000000        0x0 C:\Users\minec\AppData\Local\arduino\sketches\CBAA8D2BDA3D583126B4F168E555FB8A/..\..\cores\69cc2d20a9c0859fc6838a3a84e0426a\core.a(main.cpp.o)
 .text._Z21getMainLoopTaskHandlev
                0x0000000000000000        0xc C:\Users\minec\AppData\Local\arduino\sketches\CBAA8D2BDA3D583126B4F168E555FB8A/..\..\cores\69cc2d20a9c0859fc6838a3a84e0426a\core.a(main.cpp.o)
 .data          0x0000000000000000        0x0 C:\Users\minec\AppData\Local\arduino\sketches\CBAA8D2BDA3D583126B4F168E555FB8A/..\..\cores\69cc2d20a9c0859fc6838a3a84e0426a\core.a(gcc_startup_nrf52810.S.o)
 .bss           0x0000000000000000        0x0 C:\Users\minec\AppData\Local\arduino\sketches\CBAA8D2BDA3D583126B4F168E555FB8A/..\..\cores\69cc2d20a9c0859fc6838a3a84e0426a\core.a(gcc_startup_nrf52810.S.o)
 .text          0x0000000000000000        0x0 C:\Users\minec\AppData\Local\arduino\sketches\CBAA8D2BDA3D583126B4F168E555FB8A/..\..\cores\69cc2d20a9c0859fc6838a3a84e0426a\core.a(system_nrf52810.c.o)
 .data          0x0000000000000000        0x0 C:\Users\minec\AppData\Local\arduino\sketches\CBAA8D2BDA3D583126B4F168E555FB8A/..\..\cores\69cc2d20a9c0859fc6838a3a84e0426a\core.a(system_nrf52810.c.o)
 .bss           0x0000000000000000        0x0 C:\Users\minec\AppData\Local\arduino\sketches\CBAA8D2BDA3D583126B4F168E555FB8A/..\..\cores\69cc2d20a9c0859fc6838a3a84e0426a\core.a(system_nrf52810.c.o)
 .text.SystemCoreClockUpdate
                0x0000000000000000       0x10 C:\Users\minec\AppData\Local\arduino\sketches\CBAA8D2BDA3D583126B4F168E555FB8A/..\..\cores\69cc2d20a9c0859fc6838a3a84e0426a\core.a(system_nrf52810.c.o)
 .group         0x0000000000000000        0x8 C:\Users\minec\AppData\Local\arduino\sketches\CBAA8D2BDA3D583126B4F168E555FB8A/..\..\cores\69cc2d20a9c0859fc6838a3a84e0426a\core.a(rtos.cpp.o)
 .text          0x0000000000000000        0x0 C:\Users\minec\AppData\Local\arduino\sketches\CBAA8D2BDA3D583126B4F168E555FB8A/..\..\cores\69cc2d20a9c0859fc6838a3a84e0426a\core.a(rtos.cpp.o)
 .data          0x0000000000000000        0x0 C:\Users\minec\AppData\Local\arduino\sketches\CBAA8D2BDA3D583126B4F168E555FB8A/..\..\cores\69cc2d20a9c0859fc6838a3a84e0426a\core.a(rtos.cpp.o)
 .bss           0x0000000000000000        0x0 C:\Users\minec\AppData\Local\arduino\sketches\CBAA8D2BDA3D583126B4F168E555FB8A/..\..\cores\69cc2d20a9c0859fc6838a3a84e0426a\core.a(rtos.cpp.o)
 .text.nimble_port_freertos_get_ll_hwm
                0x0000000000000000        0x4 C:\Users\minec\AppData\Local\arduino\sketches\CBAA8D2BDA3D583126B4F168E555FB8A/..\..\cores\69cc2d20a9c0859fc6838a3a84e0426a\core.a(rtos.cpp.o)
 .text.nimble_port_freertos_get_hs_hwm
                0x0000000000000000        0x4 C:\Users\minec\AppData\Local\arduino\sketches\CBAA8D2BDA3D583126B4F168E555FB8A/..\..\cores\69cc2d20a9c0859fc6838a3a84e0426a\core.a(rtos.cpp.o)
 .text._ZN9nableRtos17getBleHostTaskHwmEv
                0x0000000000000000        0x8 C:\Users\minec\AppData\Local\arduino\sketches\CBAA8D2BDA3D583126B4F168E555FB8A/..\..\cores\69cc2d20a9c0859fc6838a3a84e0426a\core.a(rtos.cpp.o)
 .text._ZN9nableRtos15getBleLLTaskHwmEv
                0x0000000000000000        0x8 C:\Users\minec\AppData\Local\arduino\sketches\CBAA8D2BDA3D583126B4F168E555FB8A/..\..\cores\69cc2d20a9c0859fc6838a3a84e0426a\core.a(rtos.cpp.o)
 .text._ZN9nableRtos14getMainTaskHwmEv
                0x0000000000000000        0xe C:\Users\minec\AppData\Local\arduino\sketches\CBAA8D2BDA3D583126B4F168E555FB8A/..\..\cores\69cc2d20a9c0859fc6838a3a84e0426a\core.a(rtos.cpp.o)
 .text._ZN9nableRtos14getIdleTaskHwmEv
                0x0000000000000000        0xe C:\Users\minec\AppData\Local\arduino\sketches\CBAA8D2BDA3D583126B4F168E555FB8A/..\..\cores\69cc2d20a9c0859fc6838a3a84e0426a\core.a(rtos.cpp.o)
 .text._ZN9nableRtos11getFreeHeapEv
                0x0000000000000000        0x4 C:\Users\minec\AppData\Local\arduino\sketches\CBAA8D2BDA3D583126B4F168E555FB8A/..\..\cores\69cc2d20a9c0859fc6838a3a84e0426a\core.a(rtos.cpp.o)
 .text._ZN9nableRtos15getTimerTaskHwmEv
                0x0000000000000000        0xe C:\Users\minec\AppData\Local\arduino\sketches\CBAA8D2BDA3D583126B4F168E555FB8A/..\..\cores\69cc2d20a9c0859fc6838a3a84e0426a\core.a(rtos.cpp.o)
 .text._ZN9nableRtos14getIsrStackHwmEv
                0x0000000000000000       0x2c C:\Users\minec\AppData\Local\arduino\sketches\CBAA8D2BDA3D583126B4F168E555FB8A/..\..\cores\69cc2d20a9c0859fc6838a3a84e0426a\core.a(rtos.cpp.o)
 .text._ZN9nableRtos21getMainLoopTaskHandleEv
                0x0000000000000000        0x4 C:\Users\minec\AppData\Local\arduino\sketches\CBAA8D2BDA3D583126B4F168E555FB8A/..\..\cores\69cc2d20a9c0859fc6838a3a84e0426a\core.a(rtos.cpp.o)
 .text          0x0000000000000000        0x0 C:\Users\minec\AppData\Local\arduino\sketches\CBAA8D2BDA3D583126B4F168E555FB8A/..\..\cores\69cc2d20a9c0859fc6838a3a84e0426a\core.a(debug_utils.cpp.o)
 .data          0x0000000000000000        0x0 C:\Users\minec\AppData\Local\arduino\sketches\CBAA8D2BDA3D583126B4F168E555FB8A/..\..\cores\69cc2d20a9c0859fc6838a3a84e0426a\core.a(debug_utils.cpp.o)
 .bss           0x0000000000000000        0x0 C:\Users\minec\AppData\Local\arduino\sketches\CBAA8D2BDA3D583126B4F168E555FB8A/..\..\cores\69cc2d20a9c0859fc6838a3a84e0426a\core.a(debug_utils.cpp.o)
 .text._Z22check_and_report_faultv
                0x0000000000000000        0x2 C:\Users\minec\AppData\Local\arduino\sketches\CBAA8D2BDA3D583126B4F168E555FB8A/..\..\cores\69cc2d20a9c0859fc6838a3a84e0426a\core.a(debug_utils.cpp.o)
 .rodata.__assert_func.str1.1
                0x0000000000000000       0x80 C:\Users\minec\AppData\Local\arduino\sketches\CBAA8D2BDA3D583126B4F168E555FB8A/..\..\cores\69cc2d20a9c0859fc6838a3a84e0426a\core.a(debug_utils.cpp.o)
 .text.__assert_func
                0x0000000000000000       0x7c C:\Users\minec\AppData\Local\arduino\sketches\CBAA8D2BDA3D583126B4F168E555FB8A/..\..\cores\69cc2d20a9c0859fc6838a3a84e0426a\core.a(debug_utils.cpp.o)
 .rodata.__cxa_pure_virtual.str1.1
                0x0000000000000000       0x1d C:\Users\minec\AppData\Local\arduino\sketches\CBAA8D2BDA3D583126B4F168E555FB8A/..\..\cores\69cc2d20a9c0859fc6838a3a84e0426a\core.a(debug_utils.cpp.o)
 .text.__cxa_pure_virtual
                0x0000000000000000       0x20 C:\Users\minec\AppData\Local\arduino\sketches\CBAA8D2BDA3D583126B4F168E555FB8A/..\..\cores\69cc2d20a9c0859fc6838a3a84e0426a\core.a(debug_utils.cpp.o)
 .rodata.__cxa_deleted_virtual.str1.1
                0x0000000000000000       0x20 C:\Users\minec\AppData\Local\arduino\sketches\CBAA8D2BDA3D583126B4F168E555FB8A/..\..\cores\69cc2d20a9c0859fc6838a3a84e0426a\core.a(debug_utils.cpp.o)
 .text.__cxa_deleted_virtual
                0x0000000000000000       0x20 C:\Users\minec\AppData\Local\arduino\sketches\CBAA8D2BDA3D583126B4F168E555FB8A/..\..\cores\69cc2d20a9c0859fc6838a3a84e0426a\core.a(debug_utils.cpp.o)
 .text          0x0000000000000000        0x0 C:\Users\minec\AppData\Local\arduino\sketches\CBAA8D2BDA3D583126B4F168E555FB8A/..\..\cores\69cc2d20a9c0859fc6838a3a84e0426a\core.a(wiring.c.o)
 .data          0x0000000000000000        0x0 C:\Users\minec\AppData\Local\arduino\sketches\CBAA8D2BDA3D583126B4F168E555FB8A/..\..\cores\69cc2d20a9c0859fc6838a3a84e0426a\core.a(wiring.c.o)
 .bss           0x0000000000000000        0x0 C:\Users\minec\AppData\Local\arduino\sketches\CBAA8D2BDA3D583126B4F168E555FB8A/..\..\cores\69cc2d20a9c0859fc6838a3a84e0426a\core.a(wiring.c.o)
 .text.__NVIC_SystemReset
                0x0000000000000000       0x24 C:\Users\minec\AppData\Local\arduino\sketches\CBAA8D2BDA3D583126B4F168E555FB8A/..\..\cores\69cc2d20a9c0859fc6838a3a84e0426a\core.a(wiring.c.o)
 .text.getResetReason
                0x0000000000000000        0xc C:\Users\minec\AppData\Local\arduino\sketches\CBAA8D2BDA3D583126B4F168E555FB8A/..\..\cores\69cc2d20a9c0859fc6838a3a84e0426a\core.a(wiring.c.o)
 .text.systemPowerOff
                0x0000000000000000       0x12 C:\Users\minec\AppData\Local\arduino\sketches\CBAA8D2BDA3D583126B4F168E555FB8A/..\..\cores\69cc2d20a9c0859fc6838a3a84e0426a\core.a(wiring.c.o)
 .text.systemRestart
                0x0000000000000000        0x6 C:\Users\minec\AppData\Local\arduino\sketches\CBAA8D2BDA3D583126B4F168E555FB8A/..\..\cores\69cc2d20a9c0859fc6838a3a84e0426a\core.a(wiring.c.o)
 .text.enterSerialDfu
                0x0000000000000000       0x10 C:\Users\minec\AppData\Local\arduino\sketches\CBAA8D2BDA3D583126B4F168E555FB8A/..\..\cores\69cc2d20a9c0859fc6838a3a84e0426a\core.a(wiring.c.o)
 .rodata.hw_clock_hfxo_request.str1.1
                0x0000000000000000       0x86 C:\Users\minec\AppData\Local\arduino\sketches\CBAA8D2BDA3D583126B4F168E555FB8A/..\..\cores\69cc2d20a9c0859fc6838a3a84e0426a\core.a(wiring.c.o)
 .text.hw_clock_hfxo_request
                0x0000000000000000       0x78 C:\Users\minec\AppData\Local\arduino\sketches\CBAA8D2BDA3D583126B4F168E555FB8A/..\..\cores\69cc2d20a9c0859fc6838a3a84e0426a\core.a(wiring.c.o)
 .rodata.hw_clock_hfxo_release.str1.1
                0x0000000000000000       0x1a C:\Users\minec\AppData\Local\arduino\sketches\CBAA8D2BDA3D583126B4F168E555FB8A/..\..\cores\69cc2d20a9c0859fc6838a3a84e0426a\core.a(wiring.c.o)
 .text.hw_clock_hfxo_release
                0x0000000000000000       0x44 C:\Users\minec\AppData\Local\arduino\sketches\CBAA8D2BDA3D583126B4F168E555FB8A/..\..\cores\69cc2d20a9c0859fc6838a3a84e0426a\core.a(wiring.c.o)
 .bss.hw_clock_hfxo_refcnt
                0x0000000000000000        0x1 C:\Users\minec\AppData\Local\arduino\sketches\CBAA8D2BDA3D583126B4F168E555FB8A/..\..\cores\69cc2d20a9c0859fc6838a3a84e0426a\core.a(wiring.c.o)
 .rodata.__func__.0
                0x0000000000000000       0x16 C:\Users\minec\AppData\Local\arduino\sketches\CBAA8D2BDA3D583126B4F168E555FB8A/..\..\cores\69cc2d20a9c0859fc6838a3a84e0426a\core.a(wiring.c.o)
 .rodata.__func__.1
                0x0000000000000000       0x16 C:\Users\minec\AppData\Local\arduino\sketches\CBAA8D2BDA3D583126B4F168E555FB8A/..\..\cores\69cc2d20a9c0859fc6838a3a84e0426a\core.a(wiring.c.o)
 .text          0x0000000000000000        0x0 C:\Users\minec\AppData\Local\arduino\sketches\CBAA8D2BDA3D583126B4F168E555FB8A/..\..\cores\69cc2d20a9c0859fc6838a3a84e0426a\core.a(wiring_digital.c.o)
 .data          0x0000000000000000        0x0 C:\Users\minec\AppData\Local\arduino\sketches\CBAA8D2BDA3D583126B4F168E555FB8A/..\..\cores\69cc2d20a9c0859fc6838a3a84e0426a\core.a(wiring_digital.c.o)
 .bss           0x0000000000000000        0x0 C:\Users\minec\AppData\Local\arduino\sketches\CBAA8D2BDA3D583126B4F168E555FB8A/..\..\cores\69cc2d20a9c0859fc6838a3a84e0426a\core.a(wiring_digital.c.o)
 .text.digitalRead
                0x0000000000000000       0x34 C:\Users\minec\AppData\Local\arduino\sketches\CBAA8D2BDA3D583126B4F168E555FB8A/..\..\cores\69cc2d20a9c0859fc6838a3a84e0426a\core.a(wiring_digital.c.o)
 .text.digitalToggle
                0x0000000000000000       0x2c C:\Users\minec\AppData\Local\arduino\sketches\CBAA8D2BDA3D583126B4F168E555FB8A/..\..\cores\69cc2d20a9c0859fc6838a3a84e0426a\core.a(wiring_digital.c.o)
 .group         0x0000000000000000        0x8 C:\Users\minec\AppData\Local\arduino\sketches\CBAA8D2BDA3D583126B4F168E555FB8A/..\..\cores\69cc2d20a9c0859fc6838a3a84e0426a\core.a(Print.cpp.o)
 .group         0x0000000000000000        0x8 C:\Users\minec\AppData\Local\arduino\sketches\CBAA8D2BDA3D583126B4F168E555FB8A/..\..\cores\69cc2d20a9c0859fc6838a3a84e0426a\core.a(Print.cpp.o)
 .group         0x0000000000000000        0xc C:\Users\minec\AppData\Local\arduino\sketches\CBAA8D2BDA3D583126B4F168E555FB8A/..\..\cores\69cc2d20a9c0859fc6838a3a84e0426a\core.a(Print.cpp.o)
 .text          0x0000000000000000        0x0 C:\Users\minec\AppData\Local\arduino\sketches\CBAA8D2BDA3D583126B4F168E555FB8A/..\..\cores\69cc2d20a9c0859fc6838a3a84e0426a\core.a(Print.cpp.o)
 .data          0x0000000000000000        0x0 C:\Users\minec\AppData\Local\arduino\sketches\CBAA8D2BDA3D583126B4F168E555FB8A/..\..\cores\69cc2d20a9c0859fc6838a3a84e0426a\core.a(Print.cpp.o)
 .bss           0x0000000000000000        0x0 C:\Users\minec\AppData\Local\arduino\sketches\CBAA8D2BDA3D583126B4F168E555FB8A/..\..\cores\69cc2d20a9c0859fc6838a3a84e0426a\core.a(Print.cpp.o)
 .text._ZN5Print5flushEv
                0x0000000000000000        0x2 C:\Users\minec\AppData\Local\arduino\sketches\CBAA8D2BDA3D583126B4F168E555FB8A/..\..\cores\69cc2d20a9c0859fc6838a3a84e0426a\core.a(Print.cpp.o)
 .text._ZN5Print5printEPK19__FlashStringHelper
                0x0000000000000000        0x8 C:\Users\minec\AppData\Local\arduino\sketches\CBAA8D2BDA3D583126B4F168E555FB8A/..\..\cores\69cc2d20a9c0859fc6838a3a84e0426a\core.a(Print.cpp.o)
 .text._ZN5Print5printERK6String
                0x0000000000000000        0xa C:\Users\minec\AppData\Local\arduino\sketches\CBAA8D2BDA3D583126B4F168E555FB8A/..\..\cores\69cc2d20a9c0859fc6838a3a84e0426a\core.a(Print.cpp.o)
 .text._ZN5Print5printEPKc
                0x0000000000000000        0x8 C:\Users\minec\AppData\Local\arduino\sketches\CBAA8D2BDA3D583126B4F168E555FB8A/..\..\cores\69cc2d20a9c0859fc6838a3a84e0426a\core.a(Print.cpp.o)
 .text._ZN5Print5printEc
                0x0000000000000000        0x6 C:\Users\minec\AppData\Local\arduino\sketches\CBAA8D2BDA3D583126B4F168E555FB8A/..\..\cores\69cc2d20a9c0859fc6838a3a84e0426a\core.a(Print.cpp.o)
 .text._ZN5Print5printERK9Printable
                0x0000000000000000        0xc C:\Users\minec\AppData\Local\arduino\sketches\CBAA8D2BDA3D583126B4F168E555FB8A/..\..\cores\69cc2d20a9c0859fc6838a3a84e0426a\core.a(Print.cpp.o)
 .text._ZN5Print7printlnERK6String
                0x0000000000000000       0x14 C:\Users\minec\AppData\Local\arduino\sketches\CBAA8D2BDA3D583126B4F168E555FB8A/..\..\cores\69cc2d20a9c0859fc6838a3a84e0426a\core.a(Print.cpp.o)
 .text._ZN5Print7printlnEc
                0x0000000000000000       0x14 C:\Users\minec\AppData\Local\arduino\sketches\CBAA8D2BDA3D583126B4F168E555FB8A/..\..\cores\69cc2d20a9c0859fc6838a3a84e0426a\core.a(Print.cpp.o)
 .text._ZN5Print7printlnERK9Printable
                0x0000000000000000       0x14 C:\Users\minec\AppData\Local\arduino\sketches\CBAA8D2BDA3D583126B4F168E555FB8A/..\..\cores\69cc2d20a9c0859fc6838a3a84e0426a\core.a(Print.cpp.o)
 .text._ZN5Print11printNumberEmh
                0x0000000000000000       0x3c C:\Users\minec\AppData\Local\arduino\sketches\CBAA8D2BDA3D583126B4F168E555FB8A/..\..\cores\69cc2d20a9c0859fc6838a3a84e0426a\core.a(Print.cpp.o)
 .text._ZN5Print5printEli.part.0
                0x0000000000000000       0x28 C:\Users\minec\AppData\Local\arduino\sketches\CBAA8D2BDA3D583126B4F168E555FB8A/..\..\cores\69cc2d20a9c0859fc6838a3a84e0426a\core.a(Print.cpp.o)
 .text._ZN5Print5printEli
                0x0000000000000000       0x20 C:\Users\minec\AppData\Local\arduino\sketches\CBAA8D2BDA3D583126B4F168E555FB8A/..\..\cores\69cc2d20a9c0859fc6838a3a84e0426a\core.a(Print.cpp.o)
 .text._ZN5Print5printEii
                0x0000000000000000        0x4 C:\Users\minec\AppData\Local\arduino\sketches\CBAA8D2BDA3D583126B4F168E555FB8A/..\..\cores\69cc2d20a9c0859fc6838a3a84e0426a\core.a(Print.cpp.o)
 .text._ZN5Print7printlnEii
                0x0000000000000000       0x14 C:\Users\minec\AppData\Local\arduino\sketches\CBAA8D2BDA3D583126B4F168E555FB8A/..\..\cores\69cc2d20a9c0859fc6838a3a84e0426a\core.a(Print.cpp.o)
 .text._ZN5Print7printlnEli
                0x0000000000000000       0x14 C:\Users\minec\AppData\Local\arduino\sketches\CBAA8D2BDA3D583126B4F168E555FB8A/..\..\cores\69cc2d20a9c0859fc6838a3a84e0426a\core.a(Print.cpp.o)
 .text._ZN5Print5printEmi
                0x0000000000000000       0x16 C:\Users\minec\AppData\Local\arduino\sketches\CBAA8D2BDA3D583126B4F168E555FB8A/..\..\cores\69cc2d20a9c0859fc6838a3a84e0426a\core.a(Print.cpp.o)
 .text._ZN5Print5printEhi
                0x0000000000000000        0x4 C:\Users\minec\AppData\Local\arduino\sketches\CBAA8D2BDA3D583126B4F168E555FB8A/..\..\cores\69cc2d20a9c0859fc6838a3a84e0426a\core.a(Print.cpp.o)
 .text._ZN5Print7printlnEhi
                0x0000000000000000       0x14 C:\Users\minec\AppData\Local\arduino\sketches\CBAA8D2BDA3D583126B4F168E555FB8A/..\..\cores\69cc2d20a9c0859fc6838a3a84e0426a\core.a(Print.cpp.o)
 .text._ZN5Print5printEji
                0x0000000000000000        0x4 C:\Users\minec\AppData\Local\arduino\sketches\CBAA8D2BDA3D583126B4F168E555FB8A/..\..\cores\69cc2d20a9c0859fc6838a3a84e0426a\core.a(Print.cpp.o)
 .text._ZN5Print7printlnEji
                0x0000000000000000       0x14 C:\Users\minec\AppData\Local\arduino\sketches\CBAA8D2BDA3D583126B4F168E555FB8A/..\..\cores\69cc2d20a9c0859fc6838a3a84e0426a\core.a(Print.cpp.o)
 .text._ZN5Print7printlnEmi
                0x0000000000000000       0x14 C:\Users\minec\AppData\Local\arduino\sketches\CBAA8D2BDA3D583126B4F168E555FB8A/..\..\cores\69cc2d20a9c0859fc6838a3a84e0426a\core.a(Print.cpp.o)
 .rodata._ZN5Print10printFloatEdh.str1.1
                0x0000000000000000        0xe C:\Users\minec\AppData\Local\arduino\sketches\CBAA8D2BDA3D583126B4F168E555FB8A/..\..\cores\69cc2d20a9c0859fc6838a3a84e0426a\core.a(Print.cpp.o)
 .text._ZN5Print10printFloatEdh
                0x0000000000000000      0x168 C:\Users\minec\AppData\Local\arduino\sketches\CBAA8D2BDA3D583126B4F168E555FB8A/..\..\cores\69cc2d20a9c0859fc6838a3a84e0426a\core.a(Print.cpp.o)
 .text._ZN5Print5printEdi
                0x0000000000000000        0xa C:\Users\minec\AppData\Local\arduino\sketches\CBAA8D2BDA3D583126B4F168E555FB8A/..\..\cores\69cc2d20a9c0859fc6838a3a84e0426a\core.a(Print.cpp.o)
 .text._ZN5Print7printlnEdi
                0x0000000000000000       0x1c C:\Users\minec\AppData\Local\arduino\sketches\CBAA8D2BDA3D583126B4F168E555FB8A/..\..\cores\69cc2d20a9c0859fc6838a3a84e0426a\core.a(Print.cpp.o)
 .rodata._ZTV5Print
                0x0000000000000000       0x20 C:\Users\minec\AppData\Local\arduino\sketches\CBAA8D2BDA3D583126B4F168E555FB8A/..\..\cores\69cc2d20a9c0859fc6838a3a84e0426a\core.a(Print.cpp.o)
 .group         0x0000000000000000        0x8 C:\Users\minec\AppData\Local\arduino\sketches\CBAA8D2BDA3D583126B4F168E555FB8A/..\..\cores\69cc2d20a9c0859fc6838a3a84e0426a\core.a(Uart.cpp.o)
 .group         0x0000000000000000       0x10 C:\Users\minec\AppData\Local\arduino\sketches\CBAA8D2BDA3D583126B4F168E555FB8A/..\..\cores\69cc2d20a9c0859fc6838a3a84e0426a\core.a(Uart.cpp.o)
 .text          0x0000000000000000        0x0 C:\Users\minec\AppData\Local\arduino\sketches\CBAA8D2BDA3D583126B4F168E555FB8A/..\..\cores\69cc2d20a9c0859fc6838a3a84e0426a\core.a(Uart.cpp.o)
 .data          0x0000000000000000        0x0 C:\Users\minec\AppData\Local\arduino\sketches\CBAA8D2BDA3D583126B4F168E555FB8A/..\..\cores\69cc2d20a9c0859fc6838a3a84e0426a\core.a(Uart.cpp.o)
 .bss           0x0000000000000000        0x0 C:\Users\minec\AppData\Local\arduino\sketches\CBAA8D2BDA3D583126B4F168E555FB8A/..\..\cores\69cc2d20a9c0859fc6838a3a84e0426a\core.a(Uart.cpp.o)
 .text._ZN5Print17availableForWriteEv
                0x0000000000000000        0x4 C:\Users\minec\AppData\Local\arduino\sketches\CBAA8D2BDA3D583126B4F168E555FB8A/..\..\cores\69cc2d20a9c0859fc6838a3a84e0426a\core.a(Uart.cpp.o)
 .text._ZN4UartC2EP13NRF_UART_Type9IRQn_Typehhhh
                0x0000000000000000       0x68 C:\Users\minec\AppData\Local\arduino\sketches\CBAA8D2BDA3D583126B4F168E555FB8A/..\..\cores\69cc2d20a9c0859fc6838a3a84e0426a\core.a(Uart.cpp.o)
 .text._ZN4Uart7setPinsEhh
                0x0000000000000000       0x18 C:\Users\minec\AppData\Local\arduino\sketches\CBAA8D2BDA3D583126B4F168E555FB8A/..\..\cores\69cc2d20a9c0859fc6838a3a84e0426a\core.a(Uart.cpp.o)
 .text._ZN4Uart7setPinsEhhhh
                0x0000000000000000       0x30 C:\Users\minec\AppData\Local\arduino\sketches\CBAA8D2BDA3D583126B4F168E555FB8A/..\..\cores\69cc2d20a9c0859fc6838a3a84e0426a\core.a(Uart.cpp.o)
 .text          0x0000000000000000        0x0 C:\Users\minec\AppData\Local\arduino\sketches\CBAA8D2BDA3D583126B4F168E555FB8A/..\..\cores\69cc2d20a9c0859fc6838a3a84e0426a\core.a(heap_4.c.o)
 .data          0x0000000000000000        0x0 C:\Users\minec\AppData\Local\arduino\sketches\CBAA8D2BDA3D583126B4F168E555FB8A/..\..\cores\69cc2d20a9c0859fc6838a3a84e0426a\core.a(heap_4.c.o)
 .bss           0x0000000000000000        0x0 C:\Users\minec\AppData\Local\arduino\sketches\CBAA8D2BDA3D583126B4F168E555FB8A/..\..\cores\69cc2d20a9c0859fc6838a3a84e0426a\core.a(heap_4.c.o)
 .text.xPortGetFreeHeapSize
                0x0000000000000000        0xc C:\Users\minec\AppData\Local\arduino\sketches\CBAA8D2BDA3D583126B4F168E555FB8A/..\..\cores\69cc2d20a9c0859fc6838a3a84e0426a\core.a(heap_4.c.o)
 .text.xPortGetMinimumEverFreeHeapSize
                0x0000000000000000        0xc C:\Users\minec\AppData\Local\arduino\sketches\CBAA8D2BDA3D583126B4F168E555FB8A/..\..\cores\69cc2d20a9c0859fc6838a3a84e0426a\core.a(heap_4.c.o)
 .text.vPortInitialiseBlocks
                0x0000000000000000        0x2 C:\Users\minec\AppData\Local\arduino\sketches\CBAA8D2BDA3D583126B4F168E555FB8A/..\..\cores\69cc2d20a9c0859fc6838a3a84e0426a\core.a(heap_4.c.o)
 .text.vPortGetHeapStats
                0x0000000000000000       0x84 C:\Users\minec\AppData\Local\arduino\sketches\CBAA8D2BDA3D583126B4F168E555FB8A/..\..\cores\69cc2d20a9c0859fc6838a3a84e0426a\core.a(heap_4.c.o)
 .text.pvPortRealloc
                0x0000000000000000       0x32 C:\Users\minec\AppData\Local\arduino\sketches\CBAA8D2BDA3D583126B4F168E555FB8A/..\..\cores\69cc2d20a9c0859fc6838a3a84e0426a\core.a(heap_4.c.o)
 .text.pvPortCalloc
                0x0000000000000000       0x1c C:\Users\minec\AppData\Local\arduino\sketches\CBAA8D2BDA3D583126B4F168E555FB8A/..\..\cores\69cc2d20a9c0859fc6838a3a84e0426a\core.a(heap_4.c.o)
 .text          0x0000000000000000        0x0 C:\Users\minec\AppData\Local\arduino\sketches\CBAA8D2BDA3D583126B4F168E555FB8A/..\..\cores\69cc2d20a9c0859fc6838a3a84e0426a\core.a(list.c.o)
 .data          0x0000000000000000        0x0 C:\Users\minec\AppData\Local\arduino\sketches\CBAA8D2BDA3D583126B4F168E555FB8A/..\..\cores\69cc2d20a9c0859fc6838a3a84e0426a\core.a(list.c.o)
 .bss           0x0000000000000000        0x0 C:\Users\minec\AppData\Local\arduino\sketches\CBAA8D2BDA3D583126B4F168E555FB8A/..\..\cores\69cc2d20a9c0859fc6838a3a84e0426a\core.a(list.c.o)
 .text          0x0000000000000000        0x0 C:\Users\minec\AppData\Local\arduino\sketches\CBAA8D2BDA3D583126B4F168E555FB8A/..\..\cores\69cc2d20a9c0859fc6838a3a84e0426a\core.a(port_nrf52.c.o)
 .data          0x0000000000000000        0x0 C:\Users\minec\AppData\Local\arduino\sketches\CBAA8D2BDA3D583126B4F168E555FB8A/..\..\cores\69cc2d20a9c0859fc6838a3a84e0426a\core.a(port_nrf52.c.o)
 .bss           0x0000000000000000        0x0 C:\Users\minec\AppData\Local\arduino\sketches\CBAA8D2BDA3D583126B4F168E555FB8A/..\..\cores\69cc2d20a9c0859fc6838a3a84e0426a\core.a(port_nrf52.c.o)
 .text.vPortEndScheduler
                0x0000000000000000        0x2 C:\Users\minec\AppData\Local\arduino\sketches\CBAA8D2BDA3D583126B4F168E555FB8A/..\..\cores\69cc2d20a9c0859fc6838a3a84e0426a\core.a(port_nrf52.c.o)
 .text.uxGetCriticalNestingDepth
                0x0000000000000000        0xc C:\Users\minec\AppData\Local\arduino\sketches\CBAA8D2BDA3D583126B4F168E555FB8A/..\..\cores\69cc2d20a9c0859fc6838a3a84e0426a\core.a(port_nrf52.c.o)
 .text          0x0000000000000000        0x0 C:\Users\minec\AppData\Local\arduino\sketches\CBAA8D2BDA3D583126B4F168E555FB8A/..\..\cores\69cc2d20a9c0859fc6838a3a84e0426a\core.a(port_nrf52_systick.c.o)
 .data          0x0000000000000000        0x0 C:\Users\minec\AppData\Local\arduino\sketches\CBAA8D2BDA3D583126B4F168E555FB8A/..\..\cores\69cc2d20a9c0859fc6838a3a84e0426a\core.a(port_nrf52_systick.c.o)
 .bss           0x0000000000000000        0x0 C:\Users\minec\AppData\Local\arduino\sketches\CBAA8D2BDA3D583126B4F168E555FB8A/..\..\cores\69cc2d20a9c0859fc6838a3a84e0426a\core.a(port_nrf52_systick.c.o)
 .text          0x0000000000000000        0x0 C:\Users\minec\AppData\Local\arduino\sketches\CBAA8D2BDA3D583126B4F168E555FB8A/..\..\cores\69cc2d20a9c0859fc6838a3a84e0426a\core.a(queue.c.o)
 .data          0x0000000000000000        0x0 C:\Users\minec\AppData\Local\arduino\sketches\CBAA8D2BDA3D583126B4F168E555FB8A/..\..\cores\69cc2d20a9c0859fc6838a3a84e0426a\core.a(queue.c.o)
 .bss           0x0000000000000000        0x0 C:\Users\minec\AppData\Local\arduino\sketches\CBAA8D2BDA3D583126B4F168E555FB8A/..\..\cores\69cc2d20a9c0859fc6838a3a84e0426a\core.a(queue.c.o)
 .text.xQueueGenericCreate
                0x0000000000000000       0x34 C:\Users\minec\AppData\Local\arduino\sketches\CBAA8D2BDA3D583126B4F168E555FB8A/..\..\cores\69cc2d20a9c0859fc6838a3a84e0426a\core.a(queue.c.o)
 .text.xQueueCreateCountingSemaphoreStatic
                0x0000000000000000       0x22 C:\Users\minec\AppData\Local\arduino\sketches\CBAA8D2BDA3D583126B4F168E555FB8A/..\..\cores\69cc2d20a9c0859fc6838a3a84e0426a\core.a(queue.c.o)
 .text.xQueueCreateCountingSemaphore
                0x0000000000000000       0x12 C:\Users\minec\AppData\Local\arduino\sketches\CBAA8D2BDA3D583126B4F168E555FB8A/..\..\cores\69cc2d20a9c0859fc6838a3a84e0426a\core.a(queue.c.o)
 .text.xQueueCreateMutexStatic
                0x0000000000000000       0x30 C:\Users\minec\AppData\Local\arduino\sketches\CBAA8D2BDA3D583126B4F168E555FB8A/..\..\cores\69cc2d20a9c0859fc6838a3a84e0426a\core.a(queue.c.o)
 .text.xQueueGiveMutexRecursive
                0x0000000000000000       0x28 C:\Users\minec\AppData\Local\arduino\sketches\CBAA8D2BDA3D583126B4F168E555FB8A/..\..\cores\69cc2d20a9c0859fc6838a3a84e0426a\core.a(queue.c.o)
 .text.xQueueCreateMutex
                0x0000000000000000       0x24 C:\Users\minec\AppData\Local\arduino\sketches\CBAA8D2BDA3D583126B4F168E555FB8A/..\..\cores\69cc2d20a9c0859fc6838a3a84e0426a\core.a(queue.c.o)
 .text.xQueueGiveFromISR
                0x0000000000000000       0x56 C:\Users\minec\AppData\Local\arduino\sketches\CBAA8D2BDA3D583126B4F168E555FB8A/..\..\cores\69cc2d20a9c0859fc6838a3a84e0426a\core.a(queue.c.o)
 .text.xQueueSemaphoreTake
                0x0000000000000000      0x12c C:\Users\minec\AppData\Local\arduino\sketches\CBAA8D2BDA3D583126B4F168E555FB8A/..\..\cores\69cc2d20a9c0859fc6838a3a84e0426a\core.a(queue.c.o)
 .text.xQueueTakeMutexRecursive
                0x0000000000000000       0x2e C:\Users\minec\AppData\Local\arduino\sketches\CBAA8D2BDA3D583126B4F168E555FB8A/..\..\cores\69cc2d20a9c0859fc6838a3a84e0426a\core.a(queue.c.o)
 .text.xQueuePeek
                0x0000000000000000       0xf4 C:\Users\minec\AppData\Local\arduino\sketches\CBAA8D2BDA3D583126B4F168E555FB8A/..\..\cores\69cc2d20a9c0859fc6838a3a84e0426a\core.a(queue.c.o)
 .text.xQueueReceiveFromISR
                0x0000000000000000       0x60 C:\Users\minec\AppData\Local\arduino\sketches\CBAA8D2BDA3D583126B4F168E555FB8A/..\..\cores\69cc2d20a9c0859fc6838a3a84e0426a\core.a(queue.c.o)
 .text.xQueuePeekFromISR
                0x0000000000000000       0x2c C:\Users\minec\AppData\Local\arduino\sketches\CBAA8D2BDA3D583126B4F168E555FB8A/..\..\cores\69cc2d20a9c0859fc6838a3a84e0426a\core.a(queue.c.o)
 .text.uxQueueMessagesWaiting
                0x0000000000000000       0x12 C:\Users\minec\AppData\Local\arduino\sketches\CBAA8D2BDA3D583126B4F168E555FB8A/..\..\cores\69cc2d20a9c0859fc6838a3a84e0426a\core.a(queue.c.o)
 .text.uxQueueSpacesAvailable
                0x0000000000000000       0x16 C:\Users\minec\AppData\Local\arduino\sketches\CBAA8D2BDA3D583126B4F168E555FB8A/..\..\cores\69cc2d20a9c0859fc6838a3a84e0426a\core.a(queue.c.o)
 .text.uxQueueMessagesWaitingFromISR
                0x0000000000000000        0x4 C:\Users\minec\AppData\Local\arduino\sketches\CBAA8D2BDA3D583126B4F168E555FB8A/..\..\cores\69cc2d20a9c0859fc6838a3a84e0426a\core.a(queue.c.o)
 .text.vQueueDelete
                0x0000000000000000        0xc C:\Users\minec\AppData\Local\arduino\sketches\CBAA8D2BDA3D583126B4F168E555FB8A/..\..\cores\69cc2d20a9c0859fc6838a3a84e0426a\core.a(queue.c.o)
 .text.xQueueIsQueueEmptyFromISR
                0x0000000000000000        0xa C:\Users\minec\AppData\Local\arduino\sketches\CBAA8D2BDA3D583126B4F168E555FB8A/..\..\cores\69cc2d20a9c0859fc6838a3a84e0426a\core.a(queue.c.o)
 .text.xQueueIsQueueFullFromISR
                0x0000000000000000        0xc C:\Users\minec\AppData\Local\arduino\sketches\CBAA8D2BDA3D583126B4F168E555FB8A/..\..\cores\69cc2d20a9c0859fc6838a3a84e0426a\core.a(queue.c.o)
 .text          0x0000000000000000        0x0 C:\Users\minec\AppData\Local\arduino\sketches\CBAA8D2BDA3D583126B4F168E555FB8A/..\..\cores\69cc2d20a9c0859fc6838a3a84e0426a\core.a(static_tasks.c.o)
 .data          0x0000000000000000        0x0 C:\Users\minec\AppData\Local\arduino\sketches\CBAA8D2BDA3D583126B4F168E555FB8A/..\..\cores\69cc2d20a9c0859fc6838a3a84e0426a\core.a(static_tasks.c.o)
 .bss           0x0000000000000000        0x0 C:\Users\minec\AppData\Local\arduino\sketches\CBAA8D2BDA3D583126B4F168E555FB8A/..\..\cores\69cc2d20a9c0859fc6838a3a84e0426a\core.a(static_tasks.c.o)
 .text          0x0000000000000000        0x0 C:\Users\minec\AppData\Local\arduino\sketches\CBAA8D2BDA3D583126B4F168E555FB8A/..\..\cores\69cc2d20a9c0859fc6838a3a84e0426a\core.a(printf.c.o)
 .data          0x0000000000000000        0x0 C:\Users\minec\AppData\Local\arduino\sketches\CBAA8D2BDA3D583126B4F168E555FB8A/..\..\cores\69cc2d20a9c0859fc6838a3a84e0426a\core.a(printf.c.o)
 .bss           0x0000000000000000        0x0 C:\Users\minec\AppData\Local\arduino\sketches\CBAA8D2BDA3D583126B4F168E555FB8A/..\..\cores\69cc2d20a9c0859fc6838a3a84e0426a\core.a(printf.c.o)
 .text._out_fct
                0x0000000000000000        0xa C:\Users\minec\AppData\Local\arduino\sketches\CBAA8D2BDA3D583126B4F168E555FB8A/..\..\cores\69cc2d20a9c0859fc6838a3a84e0426a\core.a(printf.c.o)
 .text.apply_scaling
                0x0000000000000000       0x26 C:\Users\minec\AppData\Local\arduino\sketches\CBAA8D2BDA3D583126B4F168E555FB8A/..\..\cores\69cc2d20a9c0859fc6838a3a84e0426a\core.a(printf.c.o)
 .text.unapply_scaling
                0x0000000000000000       0x26 C:\Users\minec\AppData\Local\arduino\sketches\CBAA8D2BDA3D583126B4F168E555FB8A/..\..\cores\69cc2d20a9c0859fc6838a3a84e0426a\core.a(printf.c.o)
 .text.printf   0x0000000000000000       0x28 C:\Users\minec\AppData\Local\arduino\sketches\CBAA8D2BDA3D583126B4F168E555FB8A/..\..\cores\69cc2d20a9c0859fc6838a3a84e0426a\core.a(printf.c.o)
 .text.sprintf  0x0000000000000000       0x28 C:\Users\minec\AppData\Local\arduino\sketches\CBAA8D2BDA3D583126B4F168E555FB8A/..\..\cores\69cc2d20a9c0859fc6838a3a84e0426a\core.a(printf.c.o)
 .text.sniprintf
                0x0000000000000000       0x28 C:\Users\minec\AppData\Local\arduino\sketches\CBAA8D2BDA3D583126B4F168E555FB8A/..\..\cores\69cc2d20a9c0859fc6838a3a84e0426a\core.a(printf.c.o)
 .text.vsprintf
                0x0000000000000000       0x1c C:\Users\minec\AppData\Local\arduino\sketches\CBAA8D2BDA3D583126B4F168E555FB8A/..\..\cores\69cc2d20a9c0859fc6838a3a84e0426a\core.a(printf.c.o)
 .text.vsnprintf
                0x0000000000000000       0x1c C:\Users\minec\AppData\Local\arduino\sketches\CBAA8D2BDA3D583126B4F168E555FB8A/..\..\cores\69cc2d20a9c0859fc6838a3a84e0426a\core.a(printf.c.o)
 .text.vfctprintf
                0x0000000000000000       0x20 C:\Users\minec\AppData\Local\arduino\sketches\CBAA8D2BDA3D583126B4F168E555FB8A/..\..\cores\69cc2d20a9c0859fc6838a3a84e0426a\core.a(printf.c.o)
 .text.fctprintf
                0x0000000000000000       0x1a C:\Users\minec\AppData\Local\arduino\sketches\CBAA8D2BDA3D583126B4F168E555FB8A/..\..\cores\69cc2d20a9c0859fc6838a3a84e0426a\core.a(printf.c.o)
 .text          0x0000000000000000        0x0 C:\Users\minec\AppData\Local\arduino\sketches\CBAA8D2BDA3D583126B4F168E555FB8A/..\..\cores\69cc2d20a9c0859fc6838a3a84e0426a\core.a(putchar.cpp.o)
 .data          0x0000000000000000        0x0 C:\Users\minec\AppData\Local\arduino\sketches\CBAA8D2BDA3D583126B4F168E555FB8A/..\..\cores\69cc2d20a9c0859fc6838a3a84e0426a\core.a(putchar.cpp.o)
 .bss           0x0000000000000000        0x0 C:\Users\minec\AppData\Local\arduino\sketches\CBAA8D2BDA3D583126B4F168E555FB8A/..\..\cores\69cc2d20a9c0859fc6838a3a84e0426a\core.a(putchar.cpp.o)
 .text._write   0x0000000000000000        0xc C:\Users\minec\AppData\Local\arduino\sketches\CBAA8D2BDA3D583126B4F168E555FB8A/..\..\cores\69cc2d20a9c0859fc6838a3a84e0426a\core.a(putchar.cpp.o)
 .text          0x0000000000000000        0x0 C:\Users\minec\AppData\Local\arduino\sketches\CBAA8D2BDA3D583126B4F168E555FB8A/..\..\cores\69cc2d20a9c0859fc6838a3a84e0426a\core.a(new.cpp.o)
 .data          0x0000000000000000        0x0 C:\Users\minec\AppData\Local\arduino\sketches\CBAA8D2BDA3D583126B4F168E555FB8A/..\..\cores\69cc2d20a9c0859fc6838a3a84e0426a\core.a(new.cpp.o)
 .bss           0x0000000000000000        0x0 C:\Users\minec\AppData\Local\arduino\sketches\CBAA8D2BDA3D583126B4F168E555FB8A/..\..\cores\69cc2d20a9c0859fc6838a3a84e0426a\core.a(new.cpp.o)
 .text._Znwj    0x0000000000000000        0x4 C:\Users\minec\AppData\Local\arduino\sketches\CBAA8D2BDA3D583126B4F168E555FB8A/..\..\cores\69cc2d20a9c0859fc6838a3a84e0426a\core.a(new.cpp.o)
 .text._Znaj    0x0000000000000000        0x4 C:\Users\minec\AppData\Local\arduino\sketches\CBAA8D2BDA3D583126B4F168E555FB8A/..\..\cores\69cc2d20a9c0859fc6838a3a84e0426a\core.a(new.cpp.o)
 .text._ZdlPv   0x0000000000000000        0x4 C:\Users\minec\AppData\Local\arduino\sketches\CBAA8D2BDA3D583126B4F168E555FB8A/..\..\cores\69cc2d20a9c0859fc6838a3a84e0426a\core.a(new.cpp.o)
 .text._ZdaPv   0x0000000000000000        0x4 C:\Users\minec\AppData\Local\arduino\sketches\CBAA8D2BDA3D583126B4F168E555FB8A/..\..\cores\69cc2d20a9c0859fc6838a3a84e0426a\core.a(new.cpp.o)
 .text._ZdaPvj  0x0000000000000000        0x4 C:\Users\minec\AppData\Local\arduino\sketches\CBAA8D2BDA3D583126B4F168E555FB8A/..\..\cores\69cc2d20a9c0859fc6838a3a84e0426a\core.a(new.cpp.o)
 .text          0x0000000000000000        0x0 C:\Users\minec\AppData\Local\arduino\sketches\CBAA8D2BDA3D583126B4F168E555FB8A/..\..\cores\69cc2d20a9c0859fc6838a3a84e0426a\core.a(nrfx_clock.c.o)
 .data          0x0000000000000000        0x0 C:\Users\minec\AppData\Local\arduino\sketches\CBAA8D2BDA3D583126B4F168E555FB8A/..\..\cores\69cc2d20a9c0859fc6838a3a84e0426a\core.a(nrfx_clock.c.o)
 .bss           0x0000000000000000        0x0 C:\Users\minec\AppData\Local\arduino\sketches\CBAA8D2BDA3D583126B4F168E555FB8A/..\..\cores\69cc2d20a9c0859fc6838a3a84e0426a\core.a(nrfx_clock.c.o)
 .text.nrfx_clock_disable
                0x0000000000000000       0x34 C:\Users\minec\AppData\Local\arduino\sketches\CBAA8D2BDA3D583126B4F168E555FB8A/..\..\cores\69cc2d20a9c0859fc6838a3a84e0426a\core.a(nrfx_clock.c.o)
 .text.nrfx_clock_stop
                0x0000000000000000       0x40 C:\Users\minec\AppData\Local\arduino\sketches\CBAA8D2BDA3D583126B4F168E555FB8A/..\..\cores\69cc2d20a9c0859fc6838a3a84e0426a\core.a(nrfx_clock.c.o)
 .text.nrfx_clock_uninit
                0x0000000000000000       0x1c C:\Users\minec\AppData\Local\arduino\sketches\CBAA8D2BDA3D583126B4F168E555FB8A/..\..\cores\69cc2d20a9c0859fc6838a3a84e0426a\core.a(nrfx_clock.c.o)
 .text.nrfx_clock_calibration_start
                0x0000000000000000        0x8 C:\Users\minec\AppData\Local\arduino\sketches\CBAA8D2BDA3D583126B4F168E555FB8A/..\..\cores\69cc2d20a9c0859fc6838a3a84e0426a\core.a(nrfx_clock.c.o)
 .text.nrfx_clock_is_calibrating
                0x0000000000000000        0x8 C:\Users\minec\AppData\Local\arduino\sketches\CBAA8D2BDA3D583126B4F168E555FB8A/..\..\cores\69cc2d20a9c0859fc6838a3a84e0426a\core.a(nrfx_clock.c.o)
 .text.nrfx_clock_calibration_timer_start
                0x0000000000000000        0x2 C:\Users\minec\AppData\Local\arduino\sketches\CBAA8D2BDA3D583126B4F168E555FB8A/..\..\cores\69cc2d20a9c0859fc6838a3a84e0426a\core.a(nrfx_clock.c.o)
 .text.nrfx_clock_calibration_timer_stop
                0x0000000000000000        0x2 C:\Users\minec\AppData\Local\arduino\sketches\CBAA8D2BDA3D583126B4F168E555FB8A/..\..\cores\69cc2d20a9c0859fc6838a3a84e0426a\core.a(nrfx_clock.c.o)
 .text          0x0000000000000000        0x0 C:\Users\minec\AppData\Local\arduino\sketches\CBAA8D2BDA3D583126B4F168E555FB8A/..\..\cores\69cc2d20a9c0859fc6838a3a84e0426a\core.a(nrfx_power.c.o)
 .data          0x0000000000000000        0x0 C:\Users\minec\AppData\Local\arduino\sketches\CBAA8D2BDA3D583126B4F168E555FB8A/..\..\cores\69cc2d20a9c0859fc6838a3a84e0426a\core.a(nrfx_power.c.o)
 .bss           0x0000000000000000        0x0 C:\Users\minec\AppData\Local\arduino\sketches\CBAA8D2BDA3D583126B4F168E555FB8A/..\..\cores\69cc2d20a9c0859fc6838a3a84e0426a\core.a(nrfx_power.c.o)
 .text.nrfx_power_pof_handler_get
                0x0000000000000000        0xc C:\Users\minec\AppData\Local\arduino\sketches\CBAA8D2BDA3D583126B4F168E555FB8A/..\..\cores\69cc2d20a9c0859fc6838a3a84e0426a\core.a(nrfx_power.c.o)
 .text.nrfx_power_init
                0x0000000000000000       0x48 C:\Users\minec\AppData\Local\arduino\sketches\CBAA8D2BDA3D583126B4F168E555FB8A/..\..\cores\69cc2d20a9c0859fc6838a3a84e0426a\core.a(nrfx_power.c.o)
 .text.nrfx_power_uninit
                0x0000000000000000       0x3c C:\Users\minec\AppData\Local\arduino\sketches\CBAA8D2BDA3D583126B4F168E555FB8A/..\..\cores\69cc2d20a9c0859fc6838a3a84e0426a\core.a(nrfx_power.c.o)
 .text.nrfx_power_pof_init
                0x0000000000000000        0xc C:\Users\minec\AppData\Local\arduino\sketches\CBAA8D2BDA3D583126B4F168E555FB8A/..\..\cores\69cc2d20a9c0859fc6838a3a84e0426a\core.a(nrfx_power.c.o)
 .text.nrfx_power_pof_enable
                0x0000000000000000       0x24 C:\Users\minec\AppData\Local\arduino\sketches\CBAA8D2BDA3D583126B4F168E555FB8A/..\..\cores\69cc2d20a9c0859fc6838a3a84e0426a\core.a(nrfx_power.c.o)
 .text.nrfx_power_pof_disable
                0x0000000000000000       0x12 C:\Users\minec\AppData\Local\arduino\sketches\CBAA8D2BDA3D583126B4F168E555FB8A/..\..\cores\69cc2d20a9c0859fc6838a3a84e0426a\core.a(nrfx_power.c.o)
 .text.nrfx_power_pof_uninit
                0x0000000000000000        0xc C:\Users\minec\AppData\Local\arduino\sketches\CBAA8D2BDA3D583126B4F168E555FB8A/..\..\cores\69cc2d20a9c0859fc6838a3a84e0426a\core.a(nrfx_power.c.o)
 .text.nrfx_power_sleepevt_init
                0x0000000000000000        0xc C:\Users\minec\AppData\Local\arduino\sketches\CBAA8D2BDA3D583126B4F168E555FB8A/..\..\cores\69cc2d20a9c0859fc6838a3a84e0426a\core.a(nrfx_power.c.o)
 .text.nrfx_power_sleepevt_enable
                0x0000000000000000       0x44 C:\Users\minec\AppData\Local\arduino\sketches\CBAA8D2BDA3D583126B4F168E555FB8A/..\..\cores\69cc2d20a9c0859fc6838a3a84e0426a\core.a(nrfx_power.c.o)
 .text.nrfx_power_sleepevt_disable
                0x0000000000000000        0xc C:\Users\minec\AppData\Local\arduino\sketches\CBAA8D2BDA3D583126B4F168E555FB8A/..\..\cores\69cc2d20a9c0859fc6838a3a84e0426a\core.a(nrfx_power.c.o)
 .text.nrfx_power_sleepevt_uninit
                0x0000000000000000        0xc C:\Users\minec\AppData\Local\arduino\sketches\CBAA8D2BDA3D583126B4F168E555FB8A/..\..\cores\69cc2d20a9c0859fc6838a3a84e0426a\core.a(nrfx_power.c.o)
 .bss.nrfx_power_irq_enabled
                0x0000000000000000        0x1 C:\Users\minec\AppData\Local\arduino\sketches\CBAA8D2BDA3D583126B4F168E555FB8A/..\..\cores\69cc2d20a9c0859fc6838a3a84e0426a\core.a(nrfx_power.c.o)
 .text          0x0000000000000000        0x0 C:\Users\minec\AppData\Local\arduino\sketches\CBAA8D2BDA3D583126B4F168E555FB8A/..\..\cores\69cc2d20a9c0859fc6838a3a84e0426a\core.a(RingBuffer.cpp.o)
 .data          0x0000000000000000        0x0 C:\Users\minec\AppData\Local\arduino\sketches\CBAA8D2BDA3D583126B4F168E555FB8A/..\..\cores\69cc2d20a9c0859fc6838a3a84e0426a\core.a(RingBuffer.cpp.o)
 .bss           0x0000000000000000        0x0 C:\Users\minec\AppData\Local\arduino\sketches\CBAA8D2BDA3D583126B4F168E555FB8A/..\..\cores\69cc2d20a9c0859fc6838a3a84e0426a\core.a(RingBuffer.cpp.o)
 .text._ZN10RingBuffer9nextIndexEi
                0x0000000000000000        0x8 C:\Users\minec\AppData\Local\arduino\sketches\CBAA8D2BDA3D583126B4F168E555FB8A/..\..\cores\69cc2d20a9c0859fc6838a3a84e0426a\core.a(RingBuffer.cpp.o)
 .text._ZN10RingBuffer6isFullEv
                0x0000000000000000       0x12 C:\Users\minec\AppData\Local\arduino\sketches\CBAA8D2BDA3D583126B4F168E555FB8A/..\..\cores\69cc2d20a9c0859fc6838a3a84e0426a\core.a(RingBuffer.cpp.o)
 .text          0x0000000000000000        0x0 C:\Users\minec\AppData\Local\arduino\sketches\CBAA8D2BDA3D583126B4F168E555FB8A/..\..\cores\69cc2d20a9c0859fc6838a3a84e0426a\core.a(port.c.o)
 .data          0x0000000000000000        0x0 C:\Users\minec\AppData\Local\arduino\sketches\CBAA8D2BDA3D583126B4F168E555FB8A/..\..\cores\69cc2d20a9c0859fc6838a3a84e0426a\core.a(port.c.o)
 .bss           0x0000000000000000        0x0 C:\Users\minec\AppData\Local\arduino\sketches\CBAA8D2BDA3D583126B4F168E555FB8A/..\..\cores\69cc2d20a9c0859fc6838a3a84e0426a\core.a(port.c.o)
 .text          0x0000000000000000        0x0 C:\Users\minec\AppData\Local\arduino\sketches\CBAA8D2BDA3D583126B4F168E555FB8A/..\..\cores\69cc2d20a9c0859fc6838a3a84e0426a\core.a(malloc.c.o)
 .data          0x0000000000000000        0x0 C:\Users\minec\AppData\Local\arduino\sketches\CBAA8D2BDA3D583126B4F168E555FB8A/..\..\cores\69cc2d20a9c0859fc6838a3a84e0426a\core.a(malloc.c.o)
 .bss           0x0000000000000000        0x0 C:\Users\minec\AppData\Local\arduino\sketches\CBAA8D2BDA3D583126B4F168E555FB8A/..\..\cores\69cc2d20a9c0859fc6838a3a84e0426a\core.a(malloc.c.o)
 .text.calloc   0x0000000000000000        0x4 C:\Users\minec\AppData\Local\arduino\sketches\CBAA8D2BDA3D583126B4F168E555FB8A/..\..\cores\69cc2d20a9c0859fc6838a3a84e0426a\core.a(malloc.c.o)
 .text.realloc  0x0000000000000000        0x4 C:\Users\minec\AppData\Local\arduino\sketches\CBAA8D2BDA3D583126B4F168E555FB8A/..\..\cores\69cc2d20a9c0859fc6838a3a84e0426a\core.a(malloc.c.o)
 .text.free     0x0000000000000000        0x4 C:\Users\minec\AppData\Local\arduino\sketches\CBAA8D2BDA3D583126B4F168E555FB8A/..\..\cores\69cc2d20a9c0859fc6838a3a84e0426a\core.a(malloc.c.o)
 .text._malloc_r
                0x0000000000000000        0x6 C:\Users\minec\AppData\Local\arduino\sketches\CBAA8D2BDA3D583126B4F168E555FB8A/..\..\cores\69cc2d20a9c0859fc6838a3a84e0426a\core.a(malloc.c.o)
 .text._free_r  0x0000000000000000        0x6 C:\Users\minec\AppData\Local\arduino\sketches\CBAA8D2BDA3D583126B4F168E555FB8A/..\..\cores\69cc2d20a9c0859fc6838a3a84e0426a\core.a(malloc.c.o)
 .text._realloc_r
                0x0000000000000000        0x8 C:\Users\minec\AppData\Local\arduino\sketches\CBAA8D2BDA3D583126B4F168E555FB8A/..\..\cores\69cc2d20a9c0859fc6838a3a84e0426a\core.a(malloc.c.o)
 .text._calloc_r
                0x0000000000000000        0x8 C:\Users\minec\AppData\Local\arduino\sketches\CBAA8D2BDA3D583126B4F168E555FB8A/..\..\cores\69cc2d20a9c0859fc6838a3a84e0426a\core.a(malloc.c.o)
 .text.malloc_trim
                0x0000000000000000        0x4 C:\Users\minec\AppData\Local\arduino\sketches\CBAA8D2BDA3D583126B4F168E555FB8A/..\..\cores\69cc2d20a9c0859fc6838a3a84e0426a\core.a(malloc.c.o)
 .text.malloc_usable_size
                0x0000000000000000        0x4 C:\Users\minec\AppData\Local\arduino\sketches\CBAA8D2BDA3D583126B4F168E555FB8A/..\..\cores\69cc2d20a9c0859fc6838a3a84e0426a\core.a(malloc.c.o)
 .text.malloc_stats
                0x0000000000000000        0x2 C:\Users\minec\AppData\Local\arduino\sketches\CBAA8D2BDA3D583126B4F168E555FB8A/..\..\cores\69cc2d20a9c0859fc6838a3a84e0426a\core.a(malloc.c.o)
 .text.mallopt  0x0000000000000000        0x4 C:\Users\minec\AppData\Local\arduino\sketches\CBAA8D2BDA3D583126B4F168E555FB8A/..\..\cores\69cc2d20a9c0859fc6838a3a84e0426a\core.a(malloc.c.o)
 .text.mallinfo
                0x0000000000000000       0x10 C:\Users\minec\AppData\Local\arduino\sketches\CBAA8D2BDA3D583126B4F168E555FB8A/..\..\cores\69cc2d20a9c0859fc6838a3a84e0426a\core.a(malloc.c.o)
 .text          0x0000000000000000        0x0 c:/users/minec/appdata/local/arduino15/packages/n-able-arduino/tools/gcc-arm-none-eabi/10.3.1-2.1/bin/../lib/gcc/arm-none-eabi/10.3.1/../../../../arm-none-eabi/lib/thumb/v7e-m/nofp\libstdc++_nano.a(atexit_arm.o)
 .data          0x0000000000000000        0x0 c:/users/minec/appdata/local/arduino15/packages/n-able-arduino/tools/gcc-arm-none-eabi/10.3.1-2.1/bin/../lib/gcc/arm-none-eabi/10.3.1/../../../../arm-none-eabi/lib/thumb/v7e-m/nofp\libstdc++_nano.a(atexit_arm.o)
 .bss           0x0000000000000000        0x0 c:/users/minec/appdata/local/arduino15/packages/n-able-arduino/tools/gcc-arm-none-eabi/10.3.1-2.1/bin/../lib/gcc/arm-none-eabi/10.3.1/../../../../arm-none-eabi/lib/thumb/v7e-m/nofp\libstdc++_nano.a(atexit_arm.o)
 .text          0x0000000000000000      0x254 c:/users/minec/appdata/local/arduino15/packages/n-able-arduino/tools/gcc-arm-none-eabi/10.3.1-2.1/bin/../lib/gcc/arm-none-eabi/10.3.1/thumb/v7e-m/nofp\libgcc.a(_arm_muldf3.o)
 .data          0x0000000000000000        0x0 c:/users/minec/appdata/local/arduino15/packages/n-able-arduino/tools/gcc-arm-none-eabi/10.3.1-2.1/bin/../lib/gcc/arm-none-eabi/10.3.1/thumb/v7e-m/nofp\libgcc.a(_arm_muldf3.o)
 .bss           0x0000000000000000        0x0 c:/users/minec/appdata/local/arduino15/packages/n-able-arduino/tools/gcc-arm-none-eabi/10.3.1-2.1/bin/../lib/gcc/arm-none-eabi/10.3.1/thumb/v7e-m/nofp\libgcc.a(_arm_muldf3.o)
 .debug_frame   0x0000000000000000       0x30 c:/users/minec/appdata/local/arduino15/packages/n-able-arduino/tools/gcc-arm-none-eabi/10.3.1-2.1/bin/../lib/gcc/arm-none-eabi/10.3.1/thumb/v7e-m/nofp\libgcc.a(_arm_muldf3.o)
 .ARM.attributes
                0x0000000000000000       0x1e c:/users/minec/appdata/local/arduino15/packages/n-able-arduino/tools/gcc-arm-none-eabi/10.3.1-2.1/bin/../lib/gcc/arm-none-eabi/10.3.1/thumb/v7e-m/nofp\libgcc.a(_arm_muldf3.o)
 .data          0x0000000000000000        0x0 c:/users/minec/appdata/local/arduino15/packages/n-able-arduino/tools/gcc-arm-none-eabi/10.3.1-2.1/bin/../lib/gcc/arm-none-eabi/10.3.1/thumb/v7e-m/nofp\libgcc.a(_arm_addsubdf3.o)
 .bss           0x0000000000000000        0x0 c:/users/minec/appdata/local/arduino15/packages/n-able-arduino/tools/gcc-arm-none-eabi/10.3.1-2.1/bin/../lib/gcc/arm-none-eabi/10.3.1/thumb/v7e-m/nofp\libgcc.a(_arm_addsubdf3.o)
 .data          0x0000000000000000        0x0 c:/users/minec/appdata/local/arduino15/packages/n-able-arduino/tools/gcc-arm-none-eabi/10.3.1-2.1/bin/../lib/gcc/arm-none-eabi/10.3.1/thumb/v7e-m/nofp\libgcc.a(_arm_muldivdf3.o)
 .bss           0x0000000000000000        0x0 c:/users/minec/appdata/local/arduino15/packages/n-able-arduino/tools/gcc-arm-none-eabi/10.3.1-2.1/bin/../lib/gcc/arm-none-eabi/10.3.1/thumb/v7e-m/nofp\libgcc.a(_arm_muldivdf3.o)
 .data          0x0000000000000000        0x0 c:/users/minec/appdata/local/arduino15/packages/n-able-arduino/tools/gcc-arm-none-eabi/10.3.1-2.1/bin/../lib/gcc/arm-none-eabi/10.3.1/thumb/v7e-m/nofp\libgcc.a(_arm_cmpdf2.o)
 .bss           0x0000000000000000        0x0 c:/users/minec/appdata/local/arduino15/packages/n-able-arduino/tools/gcc-arm-none-eabi/10.3.1-2.1/bin/../lib/gcc/arm-none-eabi/10.3.1/thumb/v7e-m/nofp\libgcc.a(_arm_cmpdf2.o)
 .text          0x0000000000000000       0x2c c:/users/minec/appdata/local/arduino15/packages/n-able-arduino/tools/gcc-arm-none-eabi/10.3.1-2.1/bin/../lib/gcc/arm-none-eabi/10.3.1/thumb/v7e-m/nofp\libgcc.a(_arm_unorddf2.o)
 .data          0x0000000000000000        0x0 c:/users/minec/appdata/local/arduino15/packages/n-able-arduino/tools/gcc-arm-none-eabi/10.3.1-2.1/bin/../lib/gcc/arm-none-eabi/10.3.1/thumb/v7e-m/nofp\libgcc.a(_arm_unorddf2.o)
 .bss           0x0000000000000000        0x0 c:/users/minec/appdata/local/arduino15/packages/n-able-arduino/tools/gcc-arm-none-eabi/10.3.1-2.1/bin/../lib/gcc/arm-none-eabi/10.3.1/thumb/v7e-m/nofp\libgcc.a(_arm_unorddf2.o)
 .debug_frame   0x0000000000000000       0x20 c:/users/minec/appdata/local/arduino15/packages/n-able-arduino/tools/gcc-arm-none-eabi/10.3.1-2.1/bin/../lib/gcc/arm-none-eabi/10.3.1/thumb/v7e-m/nofp\libgcc.a(_arm_unorddf2.o)
 .ARM.attributes
                0x0000000000000000       0x1e c:/users/minec/appdata/local/arduino15/packages/n-able-arduino/tools/gcc-arm-none-eabi/10.3.1-2.1/bin/../lib/gcc/arm-none-eabi/10.3.1/thumb/v7e-m/nofp\libgcc.a(_arm_unorddf2.o)
 .data          0x0000000000000000        0x0 c:/users/minec/appdata/local/arduino15/packages/n-able-arduino/tools/gcc-arm-none-eabi/10.3.1-2.1/bin/../lib/gcc/arm-none-eabi/10.3.1/thumb/v7e-m/nofp\libgcc.a(_arm_fixdfsi.o)
 .bss           0x0000000000000000        0x0 c:/users/minec/appdata/local/arduino15/packages/n-able-arduino/tools/gcc-arm-none-eabi/10.3.1-2.1/bin/../lib/gcc/arm-none-eabi/10.3.1/thumb/v7e-m/nofp\libgcc.a(_arm_fixdfsi.o)
 .data          0x0000000000000000        0x0 c:/users/minec/appdata/local/arduino15/packages/n-able-arduino/tools/gcc-arm-none-eabi/10.3.1-2.1/bin/../lib/gcc/arm-none-eabi/10.3.1/thumb/v7e-m/nofp\libgcc.a(_arm_fixunsdfsi.o)
 .bss           0x0000000000000000        0x0 c:/users/minec/appdata/local/arduino15/packages/n-able-arduino/tools/gcc-arm-none-eabi/10.3.1-2.1/bin/../lib/gcc/arm-none-eabi/10.3.1/thumb/v7e-m/nofp\libgcc.a(_arm_fixunsdfsi.o)
 .data          0x0000000000000000        0x0 c:/users/minec/appdata/local/arduino15/packages/n-able-arduino/tools/gcc-arm-none-eabi/10.3.1-2.1/bin/../lib/gcc/arm-none-eabi/10.3.1/thumb/v7e-m/nofp\libgcc.a(_aeabi_ldivmod.o)
 .bss           0x0000000000000000        0x0 c:/users/minec/appdata/local/arduino15/packages/n-able-arduino/tools/gcc-arm-none-eabi/10.3.1-2.1/bin/../lib/gcc/arm-none-eabi/10.3.1/thumb/v7e-m/nofp\libgcc.a(_aeabi_ldivmod.o)
 .data          0x0000000000000000        0x0 c:/users/minec/appdata/local/arduino15/packages/n-able-arduino/tools/gcc-arm-none-eabi/10.3.1-2.1/bin/../lib/gcc/arm-none-eabi/10.3.1/thumb/v7e-m/nofp\libgcc.a(_aeabi_uldivmod.o)
 .bss           0x0000000000000000        0x0 c:/users/minec/appdata/local/arduino15/packages/n-able-arduino/tools/gcc-arm-none-eabi/10.3.1-2.1/bin/../lib/gcc/arm-none-eabi/10.3.1/thumb/v7e-m/nofp\libgcc.a(_aeabi_uldivmod.o)
 .text          0x0000000000000000        0x0 c:/users/minec/appdata/local/arduino15/packages/n-able-arduino/tools/gcc-arm-none-eabi/10.3.1-2.1/bin/../lib/gcc/arm-none-eabi/10.3.1/thumb/v7e-m/nofp\libgcc.a(_fixdfdi.o)
 .data          0x0000000000000000        0x0 c:/users/minec/appdata/local/arduino15/packages/n-able-arduino/tools/gcc-arm-none-eabi/10.3.1-2.1/bin/../lib/gcc/arm-none-eabi/10.3.1/thumb/v7e-m/nofp\libgcc.a(_fixdfdi.o)
 .bss           0x0000000000000000        0x0 c:/users/minec/appdata/local/arduino15/packages/n-able-arduino/tools/gcc-arm-none-eabi/10.3.1-2.1/bin/../lib/gcc/arm-none-eabi/10.3.1/thumb/v7e-m/nofp\libgcc.a(_fixdfdi.o)
 .ARM.extab.text.__fixdfdi
                0x0000000000000000        0x0 c:/users/minec/appdata/local/arduino15/packages/n-able-arduino/tools/gcc-arm-none-eabi/10.3.1-2.1/bin/../lib/gcc/arm-none-eabi/10.3.1/thumb/v7e-m/nofp\libgcc.a(_fixdfdi.o)
 .text          0x0000000000000000        0x0 c:/users/minec/appdata/local/arduino15/packages/n-able-arduino/tools/gcc-arm-none-eabi/10.3.1-2.1/bin/../lib/gcc/arm-none-eabi/10.3.1/thumb/v7e-m/nofp\libgcc.a(_fixunsdfdi.o)
 .data          0x0000000000000000        0x0 c:/users/minec/appdata/local/arduino15/packages/n-able-arduino/tools/gcc-arm-none-eabi/10.3.1-2.1/bin/../lib/gcc/arm-none-eabi/10.3.1/thumb/v7e-m/nofp\libgcc.a(_fixunsdfdi.o)
 .bss           0x0000000000000000        0x0 c:/users/minec/appdata/local/arduino15/packages/n-able-arduino/tools/gcc-arm-none-eabi/10.3.1-2.1/bin/../lib/gcc/arm-none-eabi/10.3.1/thumb/v7e-m/nofp\libgcc.a(_fixunsdfdi.o)
 .ARM.extab.text.__fixunsdfdi
                0x0000000000000000        0x0 c:/users/minec/appdata/local/arduino15/packages/n-able-arduino/tools/gcc-arm-none-eabi/10.3.1-2.1/bin/../lib/gcc/arm-none-eabi/10.3.1/thumb/v7e-m/nofp\libgcc.a(_fixunsdfdi.o)
 .text          0x0000000000000000        0x0 c:/users/minec/appdata/local/arduino15/packages/n-able-arduino/tools/gcc-arm-none-eabi/10.3.1-2.1/bin/../lib/gcc/arm-none-eabi/10.3.1/thumb/v7e-m/nofp\libgcc.a(_udivmoddi4.o)
 .data          0x0000000000000000        0x0 c:/users/minec/appdata/local/arduino15/packages/n-able-arduino/tools/gcc-arm-none-eabi/10.3.1-2.1/bin/../lib/gcc/arm-none-eabi/10.3.1/thumb/v7e-m/nofp\libgcc.a(_udivmoddi4.o)
 .bss           0x0000000000000000        0x0 c:/users/minec/appdata/local/arduino15/packages/n-able-arduino/tools/gcc-arm-none-eabi/10.3.1-2.1/bin/../lib/gcc/arm-none-eabi/10.3.1/thumb/v7e-m/nofp\libgcc.a(_udivmoddi4.o)
 .ARM.extab.text.__udivmoddi4
                0x0000000000000000        0x0 c:/users/minec/appdata/local/arduino15/packages/n-able-arduino/tools/gcc-arm-none-eabi/10.3.1-2.1/bin/../lib/gcc/arm-none-eabi/10.3.1/thumb/v7e-m/nofp\libgcc.a(_udivmoddi4.o)
 .text          0x0000000000000000        0x0 c:/users/minec/appdata/local/arduino15/packages/n-able-arduino/tools/gcc-arm-none-eabi/10.3.1-2.1/bin/../lib/gcc/arm-none-eabi/10.3.1/thumb/v7e-m/nofp\libgcc.a(unwind-arm.o)
 .data          0x0000000000000000        0x0 c:/users/minec/appdata/local/arduino15/packages/n-able-arduino/tools/gcc-arm-none-eabi/10.3.1-2.1/bin/../lib/gcc/arm-none-eabi/10.3.1/thumb/v7e-m/nofp\libgcc.a(unwind-arm.o)
 .bss           0x0000000000000000        0x0 c:/users/minec/appdata/local/arduino15/packages/n-able-arduino/tools/gcc-arm-none-eabi/10.3.1-2.1/bin/../lib/gcc/arm-none-eabi/10.3.1/thumb/v7e-m/nofp\libgcc.a(unwind-arm.o)
 .ARM.extab.text.selfrel_offset31
                0x0000000000000000        0x0 c:/users/minec/appdata/local/arduino15/packages/n-able-arduino/tools/gcc-arm-none-eabi/10.3.1-2.1/bin/../lib/gcc/arm-none-eabi/10.3.1/thumb/v7e-m/nofp\libgcc.a(unwind-arm.o)
 .ARM.extab.text.search_EIT_table
                0x0000000000000000        0x0 c:/users/minec/appdata/local/arduino15/packages/n-able-arduino/tools/gcc-arm-none-eabi/10.3.1-2.1/bin/../lib/gcc/arm-none-eabi/10.3.1/thumb/v7e-m/nofp\libgcc.a(unwind-arm.o)
 .ARM.extab.text.__gnu_unwind_get_pr_addr
                0x0000000000000000        0x0 c:/users/minec/appdata/local/arduino15/packages/n-able-arduino/tools/gcc-arm-none-eabi/10.3.1-2.1/bin/../lib/gcc/arm-none-eabi/10.3.1/thumb/v7e-m/nofp\libgcc.a(unwind-arm.o)
 .ARM.extab.text.get_eit_entry
                0x0000000000000000        0x0 c:/users/minec/appdata/local/arduino15/packages/n-able-arduino/tools/gcc-arm-none-eabi/10.3.1-2.1/bin/../lib/gcc/arm-none-eabi/10.3.1/thumb/v7e-m/nofp\libgcc.a(unwind-arm.o)
 .ARM.extab.text.restore_non_core_regs
                0x0000000000000000        0x0 c:/users/minec/appdata/local/arduino15/packages/n-able-arduino/tools/gcc-arm-none-eabi/10.3.1-2.1/bin/../lib/gcc/arm-none-eabi/10.3.1/thumb/v7e-m/nofp\libgcc.a(unwind-arm.o)
 .text.__gnu_unwind_24bit.constprop.0
                0x0000000000000000        0x4 c:/users/minec/appdata/local/arduino15/packages/n-able-arduino/tools/gcc-arm-none-eabi/10.3.1-2.1/bin/../lib/gcc/arm-none-eabi/10.3.1/thumb/v7e-m/nofp\libgcc.a(unwind-arm.o)
 .ARM.extab.text.__gnu_unwind_24bit.constprop.0
                0x0000000000000000        0x0 c:/users/minec/appdata/local/arduino15/packages/n-able-arduino/tools/gcc-arm-none-eabi/10.3.1-2.1/bin/../lib/gcc/arm-none-eabi/10.3.1/thumb/v7e-m/nofp\libgcc.a(unwind-arm.o)
 .ARM.exidx.text.__gnu_unwind_24bit.constprop.0
                0x0000000000000000        0x8 c:/users/minec/appdata/local/arduino15/packages/n-able-arduino/tools/gcc-arm-none-eabi/10.3.1-2.1/bin/../lib/gcc/arm-none-eabi/10.3.1/thumb/v7e-m/nofp\libgcc.a(unwind-arm.o)
 .ARM.extab.text._Unwind_decode_typeinfo_ptr.constprop.0
                0x0000000000000000        0x0 c:/users/minec/appdata/local/arduino15/packages/n-able-arduino/tools/gcc-arm-none-eabi/10.3.1-2.1/bin/../lib/gcc/arm-none-eabi/10.3.1/thumb/v7e-m/nofp\libgcc.a(unwind-arm.o)
 .ARM.extab.text._Unwind_DebugHook
                0x0000000000000000        0x0 c:/users/minec/appdata/local/arduino15/packages/n-able-arduino/tools/gcc-arm-none-eabi/10.3.1-2.1/bin/../lib/gcc/arm-none-eabi/10.3.1/thumb/v7e-m/nofp\libgcc.a(unwind-arm.o)
 .ARM.extab.text.unwind_phase2
                0x0000000000000000        0x0 c:/users/minec/appdata/local/arduino15/packages/n-able-arduino/tools/gcc-arm-none-eabi/10.3.1-2.1/bin/../lib/gcc/arm-none-eabi/10.3.1/thumb/v7e-m/nofp\libgcc.a(unwind-arm.o)
 .ARM.extab.text.unwind_phase2_forced
                0x0000000000000000        0x0 c:/users/minec/appdata/local/arduino15/packages/n-able-arduino/tools/gcc-arm-none-eabi/10.3.1-2.1/bin/../lib/gcc/arm-none-eabi/10.3.1/thumb/v7e-m/nofp\libgcc.a(unwind-arm.o)
 .text._Unwind_GetCFA
                0x0000000000000000        0x4 c:/users/minec/appdata/local/arduino15/packages/n-able-arduino/tools/gcc-arm-none-eabi/10.3.1-2.1/bin/../lib/gcc/arm-none-eabi/10.3.1/thumb/v7e-m/nofp\libgcc.a(unwind-arm.o)
 .ARM.extab.text._Unwind_GetCFA
                0x0000000000000000        0x0 c:/users/minec/appdata/local/arduino15/packages/n-able-arduino/tools/gcc-arm-none-eabi/10.3.1-2.1/bin/../lib/gcc/arm-none-eabi/10.3.1/thumb/v7e-m/nofp\libgcc.a(unwind-arm.o)
 .ARM.exidx.text._Unwind_GetCFA
                0x0000000000000000        0x8 c:/users/minec/appdata/local/arduino15/packages/n-able-arduino/tools/gcc-arm-none-eabi/10.3.1-2.1/bin/../lib/gcc/arm-none-eabi/10.3.1/thumb/v7e-m/nofp\libgcc.a(unwind-arm.o)
 .ARM.extab.text.__gnu_Unwind_RaiseException
                0x0000000000000000        0x0 c:/users/minec/appdata/local/arduino15/packages/n-able-arduino/tools/gcc-arm-none-eabi/10.3.1-2.1/bin/../lib/gcc/arm-none-eabi/10.3.1/thumb/v7e-m/nofp\libgcc.a(unwind-arm.o)
 .ARM.extab.text.__gnu_Unwind_ForcedUnwind
                0x0000000000000000        0x0 c:/users/minec/appdata/local/arduino15/packages/n-able-arduino/tools/gcc-arm-none-eabi/10.3.1-2.1/bin/../lib/gcc/arm-none-eabi/10.3.1/thumb/v7e-m/nofp\libgcc.a(unwind-arm.o)
 .ARM.extab.text.__gnu_Unwind_Resume
                0x0000000000000000        0x0 c:/users/minec/appdata/local/arduino15/packages/n-able-arduino/tools/gcc-arm-none-eabi/10.3.1-2.1/bin/../lib/gcc/arm-none-eabi/10.3.1/thumb/v7e-m/nofp\libgcc.a(unwind-arm.o)
 .ARM.extab.text.__gnu_Unwind_Resume_or_Rethrow
                0x0000000000000000        0x0 c:/users/minec/appdata/local/arduino15/packages/n-able-arduino/tools/gcc-arm-none-eabi/10.3.1-2.1/bin/../lib/gcc/arm-none-eabi/10.3.1/thumb/v7e-m/nofp\libgcc.a(unwind-arm.o)
 .text._Unwind_Complete
                0x0000000000000000        0x4 c:/users/minec/appdata/local/arduino15/packages/n-able-arduino/tools/gcc-arm-none-eabi/10.3.1-2.1/bin/../lib/gcc/arm-none-eabi/10.3.1/thumb/v7e-m/nofp\libgcc.a(unwind-arm.o)
 .ARM.extab.text._Unwind_Complete
                0x0000000000000000        0x0 c:/users/minec/appdata/local/arduino15/packages/n-able-arduino/tools/gcc-arm-none-eabi/10.3.1-2.1/bin/../lib/gcc/arm-none-eabi/10.3.1/thumb/v7e-m/nofp\libgcc.a(unwind-arm.o)
 .ARM.exidx.text._Unwind_Complete
                0x0000000000000000        0x8 c:/users/minec/appdata/local/arduino15/packages/n-able-arduino/tools/gcc-arm-none-eabi/10.3.1-2.1/bin/../lib/gcc/arm-none-eabi/10.3.1/thumb/v7e-m/nofp\libgcc.a(unwind-arm.o)
 .text._Unwind_DeleteException
                0x0000000000000000        0xc c:/users/minec/appdata/local/arduino15/packages/n-able-arduino/tools/gcc-arm-none-eabi/10.3.1-2.1/bin/../lib/gcc/arm-none-eabi/10.3.1/thumb/v7e-m/nofp\libgcc.a(unwind-arm.o)
 .ARM.extab.text._Unwind_DeleteException
                0x0000000000000000        0x0 c:/users/minec/appdata/local/arduino15/packages/n-able-arduino/tools/gcc-arm-none-eabi/10.3.1-2.1/bin/../lib/gcc/arm-none-eabi/10.3.1/thumb/v7e-m/nofp\libgcc.a(unwind-arm.o)
 .ARM.exidx.text._Unwind_DeleteException
                0x0000000000000000        0x8 c:/users/minec/appdata/local/arduino15/packages/n-able-arduino/tools/gcc-arm-none-eabi/10.3.1-2.1/bin/../lib/gcc/arm-none-eabi/10.3.1/thumb/v7e-m/nofp\libgcc.a(unwind-arm.o)
 .ARM.extab.text._Unwind_VRS_Get
                0x0000000000000000        0x0 c:/users/minec/appdata/local/arduino15/packages/n-able-arduino/tools/gcc-arm-none-eabi/10.3.1-2.1/bin/../lib/gcc/arm-none-eabi/10.3.1/thumb/v7e-m/nofp\libgcc.a(unwind-arm.o)
 .ARM.extab.text._Unwind_GetGR
                0x0000000000000000        0x0 c:/users/minec/appdata/local/arduino15/packages/n-able-arduino/tools/gcc-arm-none-eabi/10.3.1-2.1/bin/../lib/gcc/arm-none-eabi/10.3.1/thumb/v7e-m/nofp\libgcc.a(unwind-arm.o)
 .ARM.extab.text._Unwind_VRS_Set
                0x0000000000000000        0x0 c:/users/minec/appdata/local/arduino15/packages/n-able-arduino/tools/gcc-arm-none-eabi/10.3.1-2.1/bin/../lib/gcc/arm-none-eabi/10.3.1/thumb/v7e-m/nofp\libgcc.a(unwind-arm.o)
 .ARM.extab.text._Unwind_SetGR
                0x0000000000000000        0x0 c:/users/minec/appdata/local/arduino15/packages/n-able-arduino/tools/gcc-arm-none-eabi/10.3.1-2.1/bin/../lib/gcc/arm-none-eabi/10.3.1/thumb/v7e-m/nofp\libgcc.a(unwind-arm.o)
 .ARM.extab.text.__gnu_Unwind_Backtrace
                0x0000000000000000        0x0 c:/users/minec/appdata/local/arduino15/packages/n-able-arduino/tools/gcc-arm-none-eabi/10.3.1-2.1/bin/../lib/gcc/arm-none-eabi/10.3.1/thumb/v7e-m/nofp\libgcc.a(unwind-arm.o)
 .ARM.extab.text.__gnu_unwind_pr_common
                0x0000000000000000        0x0 c:/users/minec/appdata/local/arduino15/packages/n-able-arduino/tools/gcc-arm-none-eabi/10.3.1-2.1/bin/../lib/gcc/arm-none-eabi/10.3.1/thumb/v7e-m/nofp\libgcc.a(unwind-arm.o)
 .ARM.extab.text.__aeabi_unwind_cpp_pr0
                0x0000000000000000        0x0 c:/users/minec/appdata/local/arduino15/packages/n-able-arduino/tools/gcc-arm-none-eabi/10.3.1-2.1/bin/../lib/gcc/arm-none-eabi/10.3.1/thumb/v7e-m/nofp\libgcc.a(unwind-arm.o)
 .ARM.extab.text.__aeabi_unwind_cpp_pr1
                0x0000000000000000        0x0 c:/users/minec/appdata/local/arduino15/packages/n-able-arduino/tools/gcc-arm-none-eabi/10.3.1-2.1/bin/../lib/gcc/arm-none-eabi/10.3.1/thumb/v7e-m/nofp\libgcc.a(unwind-arm.o)
 .ARM.extab.text.__aeabi_unwind_cpp_pr2
                0x0000000000000000        0x0 c:/users/minec/appdata/local/arduino15/packages/n-able-arduino/tools/gcc-arm-none-eabi/10.3.1-2.1/bin/../lib/gcc/arm-none-eabi/10.3.1/thumb/v7e-m/nofp\libgcc.a(unwind-arm.o)
 .ARM.extab.text._Unwind_VRS_Pop
                0x0000000000000000        0x0 c:/users/minec/appdata/local/arduino15/packages/n-able-arduino/tools/gcc-arm-none-eabi/10.3.1-2.1/bin/../lib/gcc/arm-none-eabi/10.3.1/thumb/v7e-m/nofp\libgcc.a(unwind-arm.o)
 .data          0x0000000000000000        0x0 c:/users/minec/appdata/local/arduino15/packages/n-able-arduino/tools/gcc-arm-none-eabi/10.3.1-2.1/bin/../lib/gcc/arm-none-eabi/10.3.1/thumb/v7e-m/nofp\libgcc.a(libunwind.o)
 .bss           0x0000000000000000        0x0 c:/users/minec/appdata/local/arduino15/packages/n-able-arduino/tools/gcc-arm-none-eabi/10.3.1-2.1/bin/../lib/gcc/arm-none-eabi/10.3.1/thumb/v7e-m/nofp\libgcc.a(libunwind.o)
 .text          0x0000000000000000        0x0 c:/users/minec/appdata/local/arduino15/packages/n-able-arduino/tools/gcc-arm-none-eabi/10.3.1-2.1/bin/../lib/gcc/arm-none-eabi/10.3.1/thumb/v7e-m/nofp\libgcc.a(pr-support.o)
 .data          0x0000000000000000        0x0 c:/users/minec/appdata/local/arduino15/packages/n-able-arduino/tools/gcc-arm-none-eabi/10.3.1-2.1/bin/../lib/gcc/arm-none-eabi/10.3.1/thumb/v7e-m/nofp\libgcc.a(pr-support.o)
 .bss           0x0000000000000000        0x0 c:/users/minec/appdata/local/arduino15/packages/n-able-arduino/tools/gcc-arm-none-eabi/10.3.1-2.1/bin/../lib/gcc/arm-none-eabi/10.3.1/thumb/v7e-m/nofp\libgcc.a(pr-support.o)
 .ARM.extab.text.next_unwind_byte
                0x0000000000000000        0x0 c:/users/minec/appdata/local/arduino15/packages/n-able-arduino/tools/gcc-arm-none-eabi/10.3.1-2.1/bin/../lib/gcc/arm-none-eabi/10.3.1/thumb/v7e-m/nofp\libgcc.a(pr-support.o)
 .text._Unwind_GetGR.constprop.0
                0x0000000000000000       0x1c c:/users/minec/appdata/local/arduino15/packages/n-able-arduino/tools/gcc-arm-none-eabi/10.3.1-2.1/bin/../lib/gcc/arm-none-eabi/10.3.1/thumb/v7e-m/nofp\libgcc.a(pr-support.o)
 .ARM.extab.text._Unwind_GetGR.constprop.0
                0x0000000000000000        0x0 c:/users/minec/appdata/local/arduino15/packages/n-able-arduino/tools/gcc-arm-none-eabi/10.3.1-2.1/bin/../lib/gcc/arm-none-eabi/10.3.1/thumb/v7e-m/nofp\libgcc.a(pr-support.o)
 .ARM.exidx.text._Unwind_GetGR.constprop.0
                0x0000000000000000        0x8 c:/users/minec/appdata/local/arduino15/packages/n-able-arduino/tools/gcc-arm-none-eabi/10.3.1-2.1/bin/../lib/gcc/arm-none-eabi/10.3.1/thumb/v7e-m/nofp\libgcc.a(pr-support.o)
 .text.unwind_UCB_from_context
                0x0000000000000000        0x4 c:/users/minec/appdata/local/arduino15/packages/n-able-arduino/tools/gcc-arm-none-eabi/10.3.1-2.1/bin/../lib/gcc/arm-none-eabi/10.3.1/thumb/v7e-m/nofp\libgcc.a(pr-support.o)
 .ARM.extab.text.unwind_UCB_from_context
                0x0000000000000000        0x0 c:/users/minec/appdata/local/arduino15/packages/n-able-arduino/tools/gcc-arm-none-eabi/10.3.1-2.1/bin/../lib/gcc/arm-none-eabi/10.3.1/thumb/v7e-m/nofp\libgcc.a(pr-support.o)
 .ARM.exidx.text.unwind_UCB_from_context
                0x0000000000000000        0x8 c:/users/minec/appdata/local/arduino15/packages/n-able-arduino/tools/gcc-arm-none-eabi/10.3.1-2.1/bin/../lib/gcc/arm-none-eabi/10.3.1/thumb/v7e-m/nofp\libgcc.a(pr-support.o)
 .ARM.extab.text.__gnu_unwind_execute
                0x0000000000000000        0x0 c:/users/minec/appdata/local/arduino15/packages/n-able-arduino/tools/gcc-arm-none-eabi/10.3.1-2.1/bin/../lib/gcc/arm-none-eabi/10.3.1/thumb/v7e-m/nofp\libgcc.a(pr-support.o)
 .text.__gnu_unwind_frame
                0x0000000000000000       0x2c c:/users/minec/appdata/local/arduino15/packages/n-able-arduino/tools/gcc-arm-none-eabi/10.3.1-2.1/bin/../lib/gcc/arm-none-eabi/10.3.1/thumb/v7e-m/nofp\libgcc.a(pr-support.o)
 .ARM.extab.text.__gnu_unwind_frame
                0x0000000000000000        0x0 c:/users/minec/appdata/local/arduino15/packages/n-able-arduino/tools/gcc-arm-none-eabi/10.3.1-2.1/bin/../lib/gcc/arm-none-eabi/10.3.1/thumb/v7e-m/nofp\libgcc.a(pr-support.o)
 .ARM.exidx.text.__gnu_unwind_frame
                0x0000000000000000        0x8 c:/users/minec/appdata/local/arduino15/packages/n-able-arduino/tools/gcc-arm-none-eabi/10.3.1-2.1/bin/../lib/gcc/arm-none-eabi/10.3.1/thumb/v7e-m/nofp\libgcc.a(pr-support.o)
 .text._Unwind_GetRegionStart
                0x0000000000000000        0xc c:/users/minec/appdata/local/arduino15/packages/n-able-arduino/tools/gcc-arm-none-eabi/10.3.1-2.1/bin/../lib/gcc/arm-none-eabi/10.3.1/thumb/v7e-m/nofp\libgcc.a(pr-support.o)
 .ARM.extab.text._Unwind_GetRegionStart
                0x0000000000000000        0xc c:/users/minec/appdata/local/arduino15/packages/n-able-arduino/tools/gcc-arm-none-eabi/10.3.1-2.1/bin/../lib/gcc/arm-none-eabi/10.3.1/thumb/v7e-m/nofp\libgcc.a(pr-support.o)
 .ARM.exidx.text._Unwind_GetRegionStart
                0x0000000000000000        0x8 c:/users/minec/appdata/local/arduino15/packages/n-able-arduino/tools/gcc-arm-none-eabi/10.3.1-2.1/bin/../lib/gcc/arm-none-eabi/10.3.1/thumb/v7e-m/nofp\libgcc.a(pr-support.o)
 .text._Unwind_GetLanguageSpecificData
                0x0000000000000000       0x14 c:/users/minec/appdata/local/arduino15/packages/n-able-arduino/tools/gcc-arm-none-eabi/10.3.1-2.1/bin/../lib/gcc/arm-none-eabi/10.3.1/thumb/v7e-m/nofp\libgcc.a(pr-support.o)
 .ARM.extab.text._Unwind_GetLanguageSpecificData
                0x0000000000000000        0xc c:/users/minec/appdata/local/arduino15/packages/n-able-arduino/tools/gcc-arm-none-eabi/10.3.1-2.1/bin/../lib/gcc/arm-none-eabi/10.3.1/thumb/v7e-m/nofp\libgcc.a(pr-support.o)
 .ARM.exidx.text._Unwind_GetLanguageSpecificData
                0x0000000000000000        0x8 c:/users/minec/appdata/local/arduino15/packages/n-able-arduino/tools/gcc-arm-none-eabi/10.3.1-2.1/bin/../lib/gcc/arm-none-eabi/10.3.1/thumb/v7e-m/nofp\libgcc.a(pr-support.o)
 .text.unlikely._Unwind_GetDataRelBase
                0x0000000000000000        0x6 c:/users/minec/appdata/local/arduino15/packages/n-able-arduino/tools/gcc-arm-none-eabi/10.3.1-2.1/bin/../lib/gcc/arm-none-eabi/10.3.1/thumb/v7e-m/nofp\libgcc.a(pr-support.o)
 .ARM.extab.text.unlikely._Unwind_GetDataRelBase
                0x0000000000000000        0x0 c:/users/minec/appdata/local/arduino15/packages/n-able-arduino/tools/gcc-arm-none-eabi/10.3.1-2.1/bin/../lib/gcc/arm-none-eabi/10.3.1/thumb/v7e-m/nofp\libgcc.a(pr-support.o)
 .ARM.exidx.text.unlikely._Unwind_GetDataRelBase
                0x0000000000000000        0x8 c:/users/minec/appdata/local/arduino15/packages/n-able-arduino/tools/gcc-arm-none-eabi/10.3.1-2.1/bin/../lib/gcc/arm-none-eabi/10.3.1/thumb/v7e-m/nofp\libgcc.a(pr-support.o)
 .text.unlikely._Unwind_GetTextRelBase
                0x0000000000000000        0x6 c:/users/minec/appdata/local/arduino15/packages/n-able-arduino/tools/gcc-arm-none-eabi/10.3.1-2.1/bin/../lib/gcc/arm-none-eabi/10.3.1/thumb/v7e-m/nofp\libgcc.a(pr-support.o)
 .ARM.extab.text.unlikely._Unwind_GetTextRelBase
                0x0000000000000000        0x0 c:/users/minec/appdata/local/arduino15/packages/n-able-arduino/tools/gcc-arm-none-eabi/10.3.1-2.1/bin/../lib/gcc/arm-none-eabi/10.3.1/thumb/v7e-m/nofp\libgcc.a(pr-support.o)
 .ARM.exidx.text.unlikely._Unwind_GetTextRelBase
                0x0000000000000000        0x8 c:/users/minec/appdata/local/arduino15/packages/n-able-arduino/tools/gcc-arm-none-eabi/10.3.1-2.1/bin/../lib/gcc/arm-none-eabi/10.3.1/thumb/v7e-m/nofp\libgcc.a(pr-support.o)
 .data          0x0000000000000000        0x0 c:/users/minec/appdata/local/arduino15/packages/n-able-arduino/tools/gcc-arm-none-eabi/10.3.1-2.1/bin/../lib/gcc/arm-none-eabi/10.3.1/thumb/v7e-m/nofp\libgcc.a(_dvmd_tls.o)
 .bss           0x0000000000000000        0x0 c:/users/minec/appdata/local/arduino15/packages/n-able-arduino/tools/gcc-arm-none-eabi/10.3.1-2.1/bin/../lib/gcc/arm-none-eabi/10.3.1/thumb/v7e-m/nofp\libgcc.a(_dvmd_tls.o)
 .text          0x0000000000000000        0x0 c:/users/minec/appdata/local/arduino15/packages/n-able-arduino/tools/gcc-arm-none-eabi/10.3.1-2.1/bin/../lib/gcc/arm-none-eabi/10.3.1/../../../../arm-none-eabi/lib/thumb/v7e-m/nofp\libc_nano.a(lib_a-abort.o)
 .data          0x0000000000000000        0x0 c:/users/minec/appdata/local/arduino15/packages/n-able-arduino/tools/gcc-arm-none-eabi/10.3.1-2.1/bin/../lib/gcc/arm-none-eabi/10.3.1/../../../../arm-none-eabi/lib/thumb/v7e-m/nofp\libc_nano.a(lib_a-abort.o)
 .bss           0x0000000000000000        0x0 c:/users/minec/appdata/local/arduino15/packages/n-able-arduino/tools/gcc-arm-none-eabi/10.3.1-2.1/bin/../lib/gcc/arm-none-eabi/10.3.1/../../../../arm-none-eabi/lib/thumb/v7e-m/nofp\libc_nano.a(lib_a-abort.o)
 .text          0x0000000000000000        0x0 c:/users/minec/appdata/local/arduino15/packages/n-able-arduino/tools/gcc-arm-none-eabi/10.3.1-2.1/bin/../lib/gcc/arm-none-eabi/10.3.1/../../../../arm-none-eabi/lib/thumb/v7e-m/nofp\libc_nano.a(lib_a-cxa_atexit.o)
 .data          0x0000000000000000        0x0 c:/users/minec/appdata/local/arduino15/packages/n-able-arduino/tools/gcc-arm-none-eabi/10.3.1-2.1/bin/../lib/gcc/arm-none-eabi/10.3.1/../../../../arm-none-eabi/lib/thumb/v7e-m/nofp\libc_nano.a(lib_a-cxa_atexit.o)
 .bss           0x0000000000000000        0x0 c:/users/minec/appdata/local/arduino15/packages/n-able-arduino/tools/gcc-arm-none-eabi/10.3.1-2.1/bin/../lib/gcc/arm-none-eabi/10.3.1/../../../../arm-none-eabi/lib/thumb/v7e-m/nofp\libc_nano.a(lib_a-cxa_atexit.o)
 .rodata.__cxa_atexit_dummy
                0x0000000000000000        0x4 c:/users/minec/appdata/local/arduino15/packages/n-able-arduino/tools/gcc-arm-none-eabi/10.3.1-2.1/bin/../lib/gcc/arm-none-eabi/10.3.1/../../../../arm-none-eabi/lib/thumb/v7e-m/nofp\libc_nano.a(lib_a-cxa_atexit.o)
 .text          0x0000000000000000        0x0 c:/users/minec/appdata/local/arduino15/packages/n-able-arduino/tools/gcc-arm-none-eabi/10.3.1-2.1/bin/../lib/gcc/arm-none-eabi/10.3.1/../../../../arm-none-eabi/lib/thumb/v7e-m/nofp\libc_nano.a(lib_a-exit.o)
 .data          0x0000000000000000        0x0 c:/users/minec/appdata/local/arduino15/packages/n-able-arduino/tools/gcc-arm-none-eabi/10.3.1-2.1/bin/../lib/gcc/arm-none-eabi/10.3.1/../../../../arm-none-eabi/lib/thumb/v7e-m/nofp\libc_nano.a(lib_a-exit.o)
 .bss           0x0000000000000000        0x0 c:/users/minec/appdata/local/arduino15/packages/n-able-arduino/tools/gcc-arm-none-eabi/10.3.1-2.1/bin/../lib/gcc/arm-none-eabi/10.3.1/../../../../arm-none-eabi/lib/thumb/v7e-m/nofp\libc_nano.a(lib_a-exit.o)
 .text          0x0000000000000000        0x0 c:/users/minec/appdata/local/arduino15/packages/n-able-arduino/tools/gcc-arm-none-eabi/10.3.1-2.1/bin/../lib/gcc/arm-none-eabi/10.3.1/../../../../arm-none-eabi/lib/thumb/v7e-m/nofp\libc_nano.a(lib_a-impure.o)
 .data          0x0000000000000000        0x0 c:/users/minec/appdata/local/arduino15/packages/n-able-arduino/tools/gcc-arm-none-eabi/10.3.1-2.1/bin/../lib/gcc/arm-none-eabi/10.3.1/../../../../arm-none-eabi/lib/thumb/v7e-m/nofp\libc_nano.a(lib_a-impure.o)
 .bss           0x0000000000000000        0x0 c:/users/minec/appdata/local/arduino15/packages/n-able-arduino/tools/gcc-arm-none-eabi/10.3.1-2.1/bin/../lib/gcc/arm-none-eabi/10.3.1/../../../../arm-none-eabi/lib/thumb/v7e-m/nofp\libc_nano.a(lib_a-impure.o)
 .text          0x0000000000000000        0x0 c:/users/minec/appdata/local/arduino15/packages/n-able-arduino/tools/gcc-arm-none-eabi/10.3.1-2.1/bin/../lib/gcc/arm-none-eabi/10.3.1/../../../../arm-none-eabi/lib/thumb/v7e-m/nofp\libc_nano.a(lib_a-init.o)
 .data          0x0000000000000000        0x0 c:/users/minec/appdata/local/arduino15/packages/n-able-arduino/tools/gcc-arm-none-eabi/10.3.1-2.1/bin/../lib/gcc/arm-none-eabi/10.3.1/../../../../arm-none-eabi/lib/thumb/v7e-m/nofp\libc_nano.a(lib_a-init.o)
 .bss           0x0000000000000000        0x0 c:/users/minec/appdata/local/arduino15/packages/n-able-arduino/tools/gcc-arm-none-eabi/10.3.1-2.1/bin/../lib/gcc/arm-none-eabi/10.3.1/../../../../arm-none-eabi/lib/thumb/v7e-m/nofp\libc_nano.a(lib_a-init.o)
 .text          0x0000000000000000        0x0 c:/users/minec/appdata/local/arduino15/packages/n-able-arduino/tools/gcc-arm-none-eabi/10.3.1-2.1/bin/../lib/gcc/arm-none-eabi/10.3.1/../../../../arm-none-eabi/lib/thumb/v7e-m/nofp\libc_nano.a(lib_a-memcpy-stub.o)
 .data          0x0000000000000000        0x0 c:/users/minec/appdata/local/arduino15/packages/n-able-arduino/tools/gcc-arm-none-eabi/10.3.1-2.1/bin/../lib/gcc/arm-none-eabi/10.3.1/../../../../arm-none-eabi/lib/thumb/v7e-m/nofp\libc_nano.a(lib_a-memcpy-stub.o)
 .bss           0x0000000000000000        0x0 c:/users/minec/appdata/local/arduino15/packages/n-able-arduino/tools/gcc-arm-none-eabi/10.3.1-2.1/bin/../lib/gcc/arm-none-eabi/10.3.1/../../../../arm-none-eabi/lib/thumb/v7e-m/nofp\libc_nano.a(lib_a-memcpy-stub.o)
 .text          0x0000000000000000        0x0 c:/users/minec/appdata/local/arduino15/packages/n-able-arduino/tools/gcc-arm-none-eabi/10.3.1-2.1/bin/../lib/gcc/arm-none-eabi/10.3.1/../../../../arm-none-eabi/lib/thumb/v7e-m/nofp\libc_nano.a(lib_a-memset.o)
 .data          0x0000000000000000        0x0 c:/users/minec/appdata/local/arduino15/packages/n-able-arduino/tools/gcc-arm-none-eabi/10.3.1-2.1/bin/../lib/gcc/arm-none-eabi/10.3.1/../../../../arm-none-eabi/lib/thumb/v7e-m/nofp\libc_nano.a(lib_a-memset.o)
 .bss           0x0000000000000000        0x0 c:/users/minec/appdata/local/arduino15/packages/n-able-arduino/tools/gcc-arm-none-eabi/10.3.1-2.1/bin/../lib/gcc/arm-none-eabi/10.3.1/../../../../arm-none-eabi/lib/thumb/v7e-m/nofp\libc_nano.a(lib_a-memset.o)
 .text          0x0000000000000000        0x0 c:/users/minec/appdata/local/arduino15/packages/n-able-arduino/tools/gcc-arm-none-eabi/10.3.1-2.1/bin/../lib/gcc/arm-none-eabi/10.3.1/../../../../arm-none-eabi/lib/thumb/v7e-m/nofp\libc_nano.a(lib_a-on_exit_args.o)
 .data          0x0000000000000000        0x0 c:/users/minec/appdata/local/arduino15/packages/n-able-arduino/tools/gcc-arm-none-eabi/10.3.1-2.1/bin/../lib/gcc/arm-none-eabi/10.3.1/../../../../arm-none-eabi/lib/thumb/v7e-m/nofp\libc_nano.a(lib_a-on_exit_args.o)
 .bss           0x0000000000000000        0x0 c:/users/minec/appdata/local/arduino15/packages/n-able-arduino/tools/gcc-arm-none-eabi/10.3.1-2.1/bin/../lib/gcc/arm-none-eabi/10.3.1/../../../../arm-none-eabi/lib/thumb/v7e-m/nofp\libc_nano.a(lib_a-on_exit_args.o)
 .bss._on_exit_args_instance
                0x0000000000000000      0x108 c:/users/minec/appdata/local/arduino15/packages/n-able-arduino/tools/gcc-arm-none-eabi/10.3.1-2.1/bin/../lib/gcc/arm-none-eabi/10.3.1/../../../../arm-none-eabi/lib/thumb/v7e-m/nofp\libc_nano.a(lib_a-on_exit_args.o)
 .rodata.__on_exit_args
                0x0000000000000000        0x4 c:/users/minec/appdata/local/arduino15/packages/n-able-arduino/tools/gcc-arm-none-eabi/10.3.1-2.1/bin/../lib/gcc/arm-none-eabi/10.3.1/../../../../arm-none-eabi/lib/thumb/v7e-m/nofp\libc_nano.a(lib_a-on_exit_args.o)
 .ARM.attributes
                0x0000000000000000       0x2e c:/users/minec/appdata/local/arduino15/packages/n-able-arduino/tools/gcc-arm-none-eabi/10.3.1-2.1/bin/../lib/gcc/arm-none-eabi/10.3.1/../../../../arm-none-eabi/lib/thumb/v7e-m/nofp\libc_nano.a(lib_a-on_exit_args.o)
 .text          0x0000000000000000        0x0 c:/users/minec/appdata/local/arduino15/packages/n-able-arduino/tools/gcc-arm-none-eabi/10.3.1-2.1/bin/../lib/gcc/arm-none-eabi/10.3.1/../../../../arm-none-eabi/lib/thumb/v7e-m/nofp\libc_nano.a(lib_a-signal.o)
 .data          0x0000000000000000        0x0 c:/users/minec/appdata/local/arduino15/packages/n-able-arduino/tools/gcc-arm-none-eabi/10.3.1-2.1/bin/../lib/gcc/arm-none-eabi/10.3.1/../../../../arm-none-eabi/lib/thumb/v7e-m/nofp\libc_nano.a(lib_a-signal.o)
 .bss           0x0000000000000000        0x0 c:/users/minec/appdata/local/arduino15/packages/n-able-arduino/tools/gcc-arm-none-eabi/10.3.1-2.1/bin/../lib/gcc/arm-none-eabi/10.3.1/../../../../arm-none-eabi/lib/thumb/v7e-m/nofp\libc_nano.a(lib_a-signal.o)
 .text._init_signal_r
                0x0000000000000000       0x28 c:/users/minec/appdata/local/arduino15/packages/n-able-arduino/tools/gcc-arm-none-eabi/10.3.1-2.1/bin/../lib/gcc/arm-none-eabi/10.3.1/../../../../arm-none-eabi/lib/thumb/v7e-m/nofp\libc_nano.a(lib_a-signal.o)
 .text._signal_r
                0x0000000000000000       0x30 c:/users/minec/appdata/local/arduino15/packages/n-able-arduino/tools/gcc-arm-none-eabi/10.3.1-2.1/bin/../lib/gcc/arm-none-eabi/10.3.1/../../../../arm-none-eabi/lib/thumb/v7e-m/nofp\libc_nano.a(lib_a-signal.o)
 .text.__sigtramp_r
                0x0000000000000000       0x48 c:/users/minec/appdata/local/arduino15/packages/n-able-arduino/tools/gcc-arm-none-eabi/10.3.1-2.1/bin/../lib/gcc/arm-none-eabi/10.3.1/../../../../arm-none-eabi/lib/thumb/v7e-m/nofp\libc_nano.a(lib_a-signal.o)
 .text.signal   0x0000000000000000       0x10 c:/users/minec/appdata/local/arduino15/packages/n-able-arduino/tools/gcc-arm-none-eabi/10.3.1-2.1/bin/../lib/gcc/arm-none-eabi/10.3.1/../../../../arm-none-eabi/lib/thumb/v7e-m/nofp\libc_nano.a(lib_a-signal.o)
 .text._init_signal
                0x0000000000000000        0xc c:/users/minec/appdata/local/arduino15/packages/n-able-arduino/tools/gcc-arm-none-eabi/10.3.1-2.1/bin/../lib/gcc/arm-none-eabi/10.3.1/../../../../arm-none-eabi/lib/thumb/v7e-m/nofp\libc_nano.a(lib_a-signal.o)
 .text.__sigtramp
                0x0000000000000000       0x10 c:/users/minec/appdata/local/arduino15/packages/n-able-arduino/tools/gcc-arm-none-eabi/10.3.1-2.1/bin/../lib/gcc/arm-none-eabi/10.3.1/../../../../arm-none-eabi/lib/thumb/v7e-m/nofp\libc_nano.a(lib_a-signal.o)
 .text          0x0000000000000000        0x0 c:/users/minec/appdata/local/arduino15/packages/n-able-arduino/tools/gcc-arm-none-eabi/10.3.1-2.1/bin/../lib/gcc/arm-none-eabi/10.3.1/../../../../arm-none-eabi/lib/thumb/v7e-m/nofp\libc_nano.a(lib_a-signalr.o)
 .data          0x0000000000000000        0x0 c:/users/minec/appdata/local/arduino15/packages/n-able-arduino/tools/gcc-arm-none-eabi/10.3.1-2.1/bin/../lib/gcc/arm-none-eabi/10.3.1/../../../../arm-none-eabi/lib/thumb/v7e-m/nofp\libc_nano.a(lib_a-signalr.o)
 .bss           0x0000000000000000        0x0 c:/users/minec/appdata/local/arduino15/packages/n-able-arduino/tools/gcc-arm-none-eabi/10.3.1-2.1/bin/../lib/gcc/arm-none-eabi/10.3.1/../../../../arm-none-eabi/lib/thumb/v7e-m/nofp\libc_nano.a(lib_a-signalr.o)
 .data          0x0000000000000000        0x0 c:/users/minec/appdata/local/arduino15/packages/n-able-arduino/tools/gcc-arm-none-eabi/10.3.1-2.1/bin/../lib/gcc/arm-none-eabi/10.3.1/../../../../arm-none-eabi/lib/thumb/v7e-m/nofp\libc_nano.a(lib_a-strlen.o)
 .bss           0x0000000000000000        0x0 c:/users/minec/appdata/local/arduino15/packages/n-able-arduino/tools/gcc-arm-none-eabi/10.3.1-2.1/bin/../lib/gcc/arm-none-eabi/10.3.1/../../../../arm-none-eabi/lib/thumb/v7e-m/nofp\libc_nano.a(lib_a-strlen.o)
 .text          0x0000000000000000        0x0 c:/users/minec/appdata/local/arduino15/packages/n-able-arduino/tools/gcc-arm-none-eabi/10.3.1-2.1/bin/../lib/gcc/arm-none-eabi/10.3.1/../../../../arm-none-eabi/lib/thumb/v7e-m/nofp\libc_nano.a(lib_a-reent.o)
 .data          0x0000000000000000        0x0 c:/users/minec/appdata/local/arduino15/packages/n-able-arduino/tools/gcc-arm-none-eabi/10.3.1-2.1/bin/../lib/gcc/arm-none-eabi/10.3.1/../../../../arm-none-eabi/lib/thumb/v7e-m/nofp\libc_nano.a(lib_a-reent.o)
 .bss           0x0000000000000000        0x0 c:/users/minec/appdata/local/arduino15/packages/n-able-arduino/tools/gcc-arm-none-eabi/10.3.1-2.1/bin/../lib/gcc/arm-none-eabi/10.3.1/../../../../arm-none-eabi/lib/thumb/v7e-m/nofp\libc_nano.a(lib_a-reent.o)
 .text.cleanup_glue
                0x0000000000000000       0x1a c:/users/minec/appdata/local/arduino15/packages/n-able-arduino/tools/gcc-arm-none-eabi/10.3.1-2.1/bin/../lib/gcc/arm-none-eabi/10.3.1/../../../../arm-none-eabi/lib/thumb/v7e-m/nofp\libc_nano.a(lib_a-reent.o)
 .text._reclaim_reent
                0x0000000000000000       0xb8 c:/users/minec/appdata/local/arduino15/packages/n-able-arduino/tools/gcc-arm-none-eabi/10.3.1-2.1/bin/../lib/gcc/arm-none-eabi/10.3.1/../../../../arm-none-eabi/lib/thumb/v7e-m/nofp\libc_nano.a(lib_a-reent.o)
 .text          0x0000000000000000        0x0 c:/users/minec/appdata/local/arduino15/packages/n-able-arduino/tools/gcc-arm-none-eabi/10.3.1-2.1/bin/../lib/gcc/arm-none-eabi/10.3.1/../../../../arm-none-eabi/lib/thumb/v7e-m/nofp\libnosys.a(getpid.o)
 .data          0x0000000000000000        0x0 c:/users/minec/appdata/local/arduino15/packages/n-able-arduino/tools/gcc-arm-none-eabi/10.3.1-2.1/bin/../lib/gcc/arm-none-eabi/10.3.1/../../../../arm-none-eabi/lib/thumb/v7e-m/nofp\libnosys.a(getpid.o)
 .bss           0x0000000000000000        0x0 c:/users/minec/appdata/local/arduino15/packages/n-able-arduino/tools/gcc-arm-none-eabi/10.3.1-2.1/bin/../lib/gcc/arm-none-eabi/10.3.1/../../../../arm-none-eabi/lib/thumb/v7e-m/nofp\libnosys.a(getpid.o)
 .ARM.extab.text._getpid
                0x0000000000000000        0x0 c:/users/minec/appdata/local/arduino15/packages/n-able-arduino/tools/gcc-arm-none-eabi/10.3.1-2.1/bin/../lib/gcc/arm-none-eabi/10.3.1/../../../../arm-none-eabi/lib/thumb/v7e-m/nofp\libnosys.a(getpid.o)
 .text          0x0000000000000000        0x0 c:/users/minec/appdata/local/arduino15/packages/n-able-arduino/tools/gcc-arm-none-eabi/10.3.1-2.1/bin/../lib/gcc/arm-none-eabi/10.3.1/../../../../arm-none-eabi/lib/thumb/v7e-m/nofp\libnosys.a(kill.o)
 .data          0x0000000000000000        0x0 c:/users/minec/appdata/local/arduino15/packages/n-able-arduino/tools/gcc-arm-none-eabi/10.3.1-2.1/bin/../lib/gcc/arm-none-eabi/10.3.1/../../../../arm-none-eabi/lib/thumb/v7e-m/nofp\libnosys.a(kill.o)
 .bss           0x0000000000000000        0x0 c:/users/minec/appdata/local/arduino15/packages/n-able-arduino/tools/gcc-arm-none-eabi/10.3.1-2.1/bin/../lib/gcc/arm-none-eabi/10.3.1/../../../../arm-none-eabi/lib/thumb/v7e-m/nofp\libnosys.a(kill.o)
 .ARM.extab.text._kill
                0x0000000000000000        0x0 c:/users/minec/appdata/local/arduino15/packages/n-able-arduino/tools/gcc-arm-none-eabi/10.3.1-2.1/bin/../lib/gcc/arm-none-eabi/10.3.1/../../../../arm-none-eabi/lib/thumb/v7e-m/nofp\libnosys.a(kill.o)
 .text          0x0000000000000000        0x0 c:/users/minec/appdata/local/arduino15/packages/n-able-arduino/tools/gcc-arm-none-eabi/10.3.1-2.1/bin/../lib/gcc/arm-none-eabi/10.3.1/../../../../arm-none-eabi/lib/thumb/v7e-m/nofp\libnosys.a(_exit.o)
 .data          0x0000000000000000        0x0 c:/users/minec/appdata/local/arduino15/packages/n-able-arduino/tools/gcc-arm-none-eabi/10.3.1-2.1/bin/../lib/gcc/arm-none-eabi/10.3.1/../../../../arm-none-eabi/lib/thumb/v7e-m/nofp\libnosys.a(_exit.o)
 .bss           0x0000000000000000        0x0 c:/users/minec/appdata/local/arduino15/packages/n-able-arduino/tools/gcc-arm-none-eabi/10.3.1-2.1/bin/../lib/gcc/arm-none-eabi/10.3.1/../../../../arm-none-eabi/lib/thumb/v7e-m/nofp\libnosys.a(_exit.o)
 .ARM.extab.text._exit
                0x0000000000000000        0x0 c:/users/minec/appdata/local/arduino15/packages/n-able-arduino/tools/gcc-arm-none-eabi/10.3.1-2.1/bin/../lib/gcc/arm-none-eabi/10.3.1/../../../../arm-none-eabi/lib/thumb/v7e-m/nofp\libnosys.a(_exit.o)
 .text          0x0000000000000000        0x0 c:/users/minec/appdata/local/arduino15/packages/n-able-arduino/tools/gcc-arm-none-eabi/10.3.1-2.1/bin/../lib/gcc/arm-none-eabi/10.3.1/thumb/v7e-m/nofp/crtend.o
 .data          0x0000000000000000        0x0 c:/users/minec/appdata/local/arduino15/packages/n-able-arduino/tools/gcc-arm-none-eabi/10.3.1-2.1/bin/../lib/gcc/arm-none-eabi/10.3.1/thumb/v7e-m/nofp/crtend.o
 .bss           0x0000000000000000        0x0 c:/users/minec/appdata/local/arduino15/packages/n-able-arduino/tools/gcc-arm-none-eabi/10.3.1-2.1/bin/../lib/gcc/arm-none-eabi/10.3.1/thumb/v7e-m/nofp/crtend.o
 .rodata.all_implied_fbits
                0x0000000000000000       0x24 c:/users/minec/appdata/local/arduino15/packages/n-able-arduino/tools/gcc-arm-none-eabi/10.3.1-2.1/bin/../lib/gcc/arm-none-eabi/10.3.1/thumb/v7e-m/nofp/crtend.o
 .text          0x0000000000000000        0x0 c:/users/minec/appdata/local/arduino15/packages/n-able-arduino/tools/gcc-arm-none-eabi/10.3.1-2.1/bin/../lib/gcc/arm-none-eabi/10.3.1/thumb/v7e-m/nofp/crtn.o
 .data          0x0000000000000000        0x0 c:/users/minec/appdata/local/arduino15/packages/n-able-arduino/tools/gcc-arm-none-eabi/10.3.1-2.1/bin/../lib/gcc/arm-none-eabi/10.3.1/thumb/v7e-m/nofp/crtn.o
 .bss           0x0000000000000000        0x0 c:/users/minec/appdata/local/arduino15/packages/n-able-arduino/tools/gcc-arm-none-eabi/10.3.1-2.1/bin/../lib/gcc/arm-none-eabi/10.3.1/thumb/v7e-m/nofp/crtn.o

Memory Configuration

Name             Origin             Length             Attributes
FLASH            0x0000000000000000 0x000000000002c000 xr
USER_STORE       0x000000000002c000 0x0000000000002000 rw
BOND_STORE       0x000000000002e000 0x0000000000002000 rw
RAM              0x0000000020000000 0x0000000000006000 xrw
CODE_RAM         0x0000000000800000 0x0000000000006000 xrw
*default*        0x0000000000000000 0xffffffffffffffff

Linker script and memory map

LOAD c:/users/minec/appdata/local/arduino15/packages/n-able-arduino/tools/gcc-arm-none-eabi/10.3.1-2.1/bin/../lib/gcc/arm-none-eabi/10.3.1/thumb/v7e-m/nofp/crti.o
LOAD c:/users/minec/appdata/local/arduino15/packages/n-able-arduino/tools/gcc-arm-none-eabi/10.3.1-2.1/bin/../lib/gcc/arm-none-eabi/10.3.1/thumb/v7e-m/nofp/crtbegin.o
LOAD c:/users/minec/appdata/local/arduino15/packages/n-able-arduino/tools/gcc-arm-none-eabi/10.3.1-2.1/bin/../lib/gcc/arm-none-eabi/10.3.1/../../../../arm-none-eabi/lib/thumb/v7e-m/nofp/crt0.o
LOAD C:\Users\minec\AppData\Local\arduino\sketches\CBAA8D2BDA3D583126B4F168E555FB8A\sketch\BlinkLEDs.ino.cpp.o
LOAD C:\Users\minec\AppData\Local\arduino\sketches\CBAA8D2BDA3D583126B4F168E555FB8A\core\variant.cpp.o
START GROUP
LOAD C:\Users\minec\AppData\Local\arduino\sketches\CBAA8D2BDA3D583126B4F168E555FB8A/..\..\cores\69cc2d20a9c0859fc6838a3a84e0426a\core.a
END GROUP
LOAD c:/users/minec/appdata/local/arduino15/packages/n-able-arduino/tools/gcc-arm-none-eabi/10.3.1-2.1/bin/../lib/gcc/arm-none-eabi/10.3.1/../../../../arm-none-eabi/lib/thumb/v7e-m/nofp\libstdc++_nano.a
LOAD c:/users/minec/appdata/local/arduino15/packages/n-able-arduino/tools/gcc-arm-none-eabi/10.3.1-2.1/bin/../lib/gcc/arm-none-eabi/10.3.1/../../../../arm-none-eabi/lib/thumb/v7e-m/nofp\libm.a
START GROUP
LOAD c:/users/minec/appdata/local/arduino15/packages/n-able-arduino/tools/gcc-arm-none-eabi/10.3.1-2.1/bin/../lib/gcc/arm-none-eabi/10.3.1/thumb/v7e-m/nofp\libgcc.a
LOAD c:/users/minec/appdata/local/arduino15/packages/n-able-arduino/tools/gcc-arm-none-eabi/10.3.1-2.1/bin/../lib/gcc/arm-none-eabi/10.3.1/../../../../arm-none-eabi/lib/thumb/v7e-m/nofp\libc_nano.a
END GROUP
START GROUP
LOAD c:/users/minec/appdata/local/arduino15/packages/n-able-arduino/tools/gcc-arm-none-eabi/10.3.1-2.1/bin/../lib/gcc/arm-none-eabi/10.3.1/thumb/v7e-m/nofp\libgcc.a
LOAD c:/users/minec/appdata/local/arduino15/packages/n-able-arduino/tools/gcc-arm-none-eabi/10.3.1-2.1/bin/../lib/gcc/arm-none-eabi/10.3.1/../../../../arm-none-eabi/lib/thumb/v7e-m/nofp\libc_nano.a
LOAD c:/users/minec/appdata/local/arduino15/packages/n-able-arduino/tools/gcc-arm-none-eabi/10.3.1-2.1/bin/../lib/gcc/arm-none-eabi/10.3.1/../../../../arm-none-eabi/lib/thumb/v7e-m/nofp\libnosys.a
END GROUP
START GROUP
LOAD c:/users/minec/appdata/local/arduino15/packages/n-able-arduino/tools/gcc-arm-none-eabi/10.3.1-2.1/bin/../lib/gcc/arm-none-eabi/10.3.1/thumb/v7e-m/nofp\libgcc.a
LOAD c:/users/minec/appdata/local/arduino15/packages/n-able-arduino/tools/gcc-arm-none-eabi/10.3.1-2.1/bin/../lib/gcc/arm-none-eabi/10.3.1/../../../../arm-none-eabi/lib/thumb/v7e-m/nofp\libc_nano.a
LOAD c:/users/minec/appdata/local/arduino15/packages/n-able-arduino/tools/gcc-arm-none-eabi/10.3.1-2.1/bin/../lib/gcc/arm-none-eabi/10.3.1/../../../../arm-none-eabi/lib/thumb/v7e-m/nofp\libnosys.a
END GROUP
LOAD c:/users/minec/appdata/local/arduino15/packages/n-able-arduino/tools/gcc-arm-none-eabi/10.3.1-2.1/bin/../lib/gcc/arm-none-eabi/10.3.1/thumb/v7e-m/nofp/crtend.o
LOAD c:/users/minec/appdata/local/arduino15/packages/n-able-arduino/tools/gcc-arm-none-eabi/10.3.1-2.1/bin/../lib/gcc/arm-none-eabi/10.3.1/thumb/v7e-m/nofp/crtn.o
START GROUP
LOAD c:/users/minec/appdata/local/arduino15/packages/n-able-arduino/tools/gcc-arm-none-eabi/10.3.1-2.1/bin/../lib/gcc/arm-none-eabi/10.3.1/thumb/v7e-m/nofp\libgcc.a
LOAD c:/users/minec/appdata/local/arduino15/packages/n-able-arduino/tools/gcc-arm-none-eabi/10.3.1-2.1/bin/../lib/gcc/arm-none-eabi/10.3.1/../../../../arm-none-eabi/lib/thumb/v7e-m/nofp\libc.a
LOAD c:/users/minec/appdata/local/arduino15/packages/n-able-arduino/tools/gcc-arm-none-eabi/10.3.1-2.1/bin/../lib/gcc/arm-none-eabi/10.3.1/../../../../arm-none-eabi/lib/thumb/v7e-m/nofp\libnosys.a
END GROUP

.text           0x0000000000000000     0x5c58
 *(.isr_vector)
 .isr_vector    0x0000000000000000      0x200 C:\Users\minec\AppData\Local\arduino\sketches\CBAA8D2BDA3D583126B4F168E555FB8A/..\..\cores\69cc2d20a9c0859fc6838a3a84e0426a\core.a(gcc_startup_nrf52810.S.o)
                0x0000000000000000                __isr_vector
 *(.text*)
 .text.__do_global_dtors_aux
                0x0000000000000200       0x24 c:/users/minec/appdata/local/arduino15/packages/n-able-arduino/tools/gcc-arm-none-eabi/10.3.1-2.1/bin/../lib/gcc/arm-none-eabi/10.3.1/thumb/v7e-m/nofp/crtbegin.o
 .text.frame_dummy
                0x0000000000000224       0x1c c:/users/minec/appdata/local/arduino15/packages/n-able-arduino/tools/gcc-arm-none-eabi/10.3.1-2.1/bin/../lib/gcc/arm-none-eabi/10.3.1/thumb/v7e-m/nofp/crtbegin.o
 .text          0x0000000000000240       0x7c c:/users/minec/appdata/local/arduino15/packages/n-able-arduino/tools/gcc-arm-none-eabi/10.3.1-2.1/bin/../lib/gcc/arm-none-eabi/10.3.1/../../../../arm-none-eabi/lib/thumb/v7e-m/nofp/crt0.o
                0x0000000000000240                _stack_init
                0x0000000000000248                _start
                0x0000000000000248                _mainCRTStartup
 .text.setup    0x00000000000002bc       0x16 C:\Users\minec\AppData\Local\arduino\sketches\CBAA8D2BDA3D583126B4F168E555FB8A\sketch\BlinkLEDs.ino.cpp.o
                0x00000000000002bc                setup
 .text.loop     0x00000000000002d2       0x36 C:\Users\minec\AppData\Local\arduino\sketches\CBAA8D2BDA3D583126B4F168E555FB8A\sketch\BlinkLEDs.ino.cpp.o
                0x00000000000002d2                loop
 .text.yield    0x0000000000000308       0x18 C:\Users\minec\AppData\Local\arduino\sketches\CBAA8D2BDA3D583126B4F168E555FB8A/..\..\cores\69cc2d20a9c0859fc6838a3a84e0426a\core.a(delay.c.o)
                0x0000000000000308                yield
 .text.delay    0x0000000000000320        0xe C:\Users\minec\AppData\Local\arduino\sketches\CBAA8D2BDA3D583126B4F168E555FB8A/..\..\cores\69cc2d20a9c0859fc6838a3a84e0426a\core.a(delay.c.o)
                0x0000000000000320                delay
 *fill*         0x000000000000032e        0x2 
 .text.prvAddNewTaskToReadyList
                0x0000000000000330      0x100 C:\Users\minec\AppData\Local\arduino\sketches\CBAA8D2BDA3D583126B4F168E555FB8A/..\..\cores\69cc2d20a9c0859fc6838a3a84e0426a\core.a(tasks.c.o)
 .text.prvAddCurrentTaskToDelayedList
                0x0000000000000430       0x88 C:\Users\minec\AppData\Local\arduino\sketches\CBAA8D2BDA3D583126B4F168E555FB8A/..\..\cores\69cc2d20a9c0859fc6838a3a84e0426a\core.a(tasks.c.o)
 .text.prvGetExpectedIdleTime
                0x00000000000004b8       0x3c C:\Users\minec\AppData\Local\arduino\sketches\CBAA8D2BDA3D583126B4F168E555FB8A/..\..\cores\69cc2d20a9c0859fc6838a3a84e0426a\core.a(tasks.c.o)
 .text.prvResetNextTaskUnblockTime
                0x00000000000004f4       0x24 C:\Users\minec\AppData\Local\arduino\sketches\CBAA8D2BDA3D583126B4F168E555FB8A/..\..\cores\69cc2d20a9c0859fc6838a3a84e0426a\core.a(tasks.c.o)
 .text.prvDeleteTCB
                0x0000000000000518       0x20 C:\Users\minec\AppData\Local\arduino\sketches\CBAA8D2BDA3D583126B4F168E555FB8A/..\..\cores\69cc2d20a9c0859fc6838a3a84e0426a\core.a(tasks.c.o)
 .text.prvInitialiseNewTask.constprop.0
                0x0000000000000538       0xa2 C:\Users\minec\AppData\Local\arduino\sketches\CBAA8D2BDA3D583126B4F168E555FB8A/..\..\cores\69cc2d20a9c0859fc6838a3a84e0426a\core.a(tasks.c.o)
 .text.xTaskCreateStatic
                0x00000000000005da       0x34 C:\Users\minec\AppData\Local\arduino\sketches\CBAA8D2BDA3D583126B4F168E555FB8A/..\..\cores\69cc2d20a9c0859fc6838a3a84e0426a\core.a(tasks.c.o)
                0x00000000000005da                xTaskCreateStatic
 *fill*         0x000000000000060e        0x2 
 .text.vTaskStartScheduler
                0x0000000000000610       0x74 C:\Users\minec\AppData\Local\arduino\sketches\CBAA8D2BDA3D583126B4F168E555FB8A/..\..\cores\69cc2d20a9c0859fc6838a3a84e0426a\core.a(tasks.c.o)
                0x0000000000000610                vTaskStartScheduler
 .text.vTaskSuspendAll
                0x0000000000000684       0x10 C:\Users\minec\AppData\Local\arduino\sketches\CBAA8D2BDA3D583126B4F168E555FB8A/..\..\cores\69cc2d20a9c0859fc6838a3a84e0426a\core.a(tasks.c.o)
                0x0000000000000684                vTaskSuspendAll
 .text.xTaskGetTickCount
                0x0000000000000694        0xc C:\Users\minec\AppData\Local\arduino\sketches\CBAA8D2BDA3D583126B4F168E555FB8A/..\..\cores\69cc2d20a9c0859fc6838a3a84e0426a\core.a(tasks.c.o)
                0x0000000000000694                xTaskGetTickCount
 .text.vTaskStepTick
                0x00000000000006a0       0x10 C:\Users\minec\AppData\Local\arduino\sketches\CBAA8D2BDA3D583126B4F168E555FB8A/..\..\cores\69cc2d20a9c0859fc6838a3a84e0426a\core.a(tasks.c.o)
                0x00000000000006a0                vTaskStepTick
 .text.xTaskIncrementTick
                0x00000000000006b0       0xf0 C:\Users\minec\AppData\Local\arduino\sketches\CBAA8D2BDA3D583126B4F168E555FB8A/..\..\cores\69cc2d20a9c0859fc6838a3a84e0426a\core.a(tasks.c.o)
                0x00000000000006b0                xTaskIncrementTick
 .text.xTaskResumeAll
                0x00000000000007a0       0xd8 C:\Users\minec\AppData\Local\arduino\sketches\CBAA8D2BDA3D583126B4F168E555FB8A/..\..\cores\69cc2d20a9c0859fc6838a3a84e0426a\core.a(tasks.c.o)
                0x00000000000007a0                xTaskResumeAll
 .text.vTaskDelay
                0x0000000000000878       0x30 C:\Users\minec\AppData\Local\arduino\sketches\CBAA8D2BDA3D583126B4F168E555FB8A/..\..\cores\69cc2d20a9c0859fc6838a3a84e0426a\core.a(tasks.c.o)
                0x0000000000000878                vTaskDelay
 .text.prvIdleTask
                0x00000000000008a8       0x84 C:\Users\minec\AppData\Local\arduino\sketches\CBAA8D2BDA3D583126B4F168E555FB8A/..\..\cores\69cc2d20a9c0859fc6838a3a84e0426a\core.a(tasks.c.o)
 .text.vTaskSwitchContext
                0x000000000000092c       0x8c C:\Users\minec\AppData\Local\arduino\sketches\CBAA8D2BDA3D583126B4F168E555FB8A/..\..\cores\69cc2d20a9c0859fc6838a3a84e0426a\core.a(tasks.c.o)
                0x000000000000092c                vTaskSwitchContext
 .text.vTaskPlaceOnEventList
                0x00000000000009b8       0x20 C:\Users\minec\AppData\Local\arduino\sketches\CBAA8D2BDA3D583126B4F168E555FB8A/..\..\cores\69cc2d20a9c0859fc6838a3a84e0426a\core.a(tasks.c.o)
                0x00000000000009b8                vTaskPlaceOnEventList
 .text.vTaskPlaceOnEventListRestricted
                0x00000000000009d8       0x28 C:\Users\minec\AppData\Local\arduino\sketches\CBAA8D2BDA3D583126B4F168E555FB8A/..\..\cores\69cc2d20a9c0859fc6838a3a84e0426a\core.a(tasks.c.o)
                0x00000000000009d8                vTaskPlaceOnEventListRestricted
 .text.xTaskRemoveFromEventList
                0x0000000000000a00       0x78 C:\Users\minec\AppData\Local\arduino\sketches\CBAA8D2BDA3D583126B4F168E555FB8A/..\..\cores\69cc2d20a9c0859fc6838a3a84e0426a\core.a(tasks.c.o)
                0x0000000000000a00                xTaskRemoveFromEventList
 .text.vTaskInternalSetTimeOutState
                0x0000000000000a78       0x18 C:\Users\minec\AppData\Local\arduino\sketches\CBAA8D2BDA3D583126B4F168E555FB8A/..\..\cores\69cc2d20a9c0859fc6838a3a84e0426a\core.a(tasks.c.o)
                0x0000000000000a78                vTaskInternalSetTimeOutState
 .text.xTaskCheckForTimeOut
                0x0000000000000a90       0x50 C:\Users\minec\AppData\Local\arduino\sketches\CBAA8D2BDA3D583126B4F168E555FB8A/..\..\cores\69cc2d20a9c0859fc6838a3a84e0426a\core.a(tasks.c.o)
                0x0000000000000a90                xTaskCheckForTimeOut
 .text.vTaskMissedYield
                0x0000000000000ae0        0xc C:\Users\minec\AppData\Local\arduino\sketches\CBAA8D2BDA3D583126B4F168E555FB8A/..\..\cores\69cc2d20a9c0859fc6838a3a84e0426a\core.a(tasks.c.o)
                0x0000000000000ae0                vTaskMissedYield
 .text.eTaskConfirmSleepModeStatus
                0x0000000000000aec       0x44 C:\Users\minec\AppData\Local\arduino\sketches\CBAA8D2BDA3D583126B4F168E555FB8A/..\..\cores\69cc2d20a9c0859fc6838a3a84e0426a\core.a(tasks.c.o)
                0x0000000000000aec                eTaskConfirmSleepModeStatus
 .text.vTaskSetThreadLocalStoragePointer
                0x0000000000000b30       0x18 C:\Users\minec\AppData\Local\arduino\sketches\CBAA8D2BDA3D583126B4F168E555FB8A/..\..\cores\69cc2d20a9c0859fc6838a3a84e0426a\core.a(tasks.c.o)
                0x0000000000000b30                vTaskSetThreadLocalStoragePointer
 .text.pvTaskGetThreadLocalStoragePointer
                0x0000000000000b48       0x1c C:\Users\minec\AppData\Local\arduino\sketches\CBAA8D2BDA3D583126B4F168E555FB8A/..\..\cores\69cc2d20a9c0859fc6838a3a84e0426a\core.a(tasks.c.o)
                0x0000000000000b48                pvTaskGetThreadLocalStoragePointer
 .text.xTaskGetSchedulerState
                0x0000000000000b64       0x20 C:\Users\minec\AppData\Local\arduino\sketches\CBAA8D2BDA3D583126B4F168E555FB8A/..\..\cores\69cc2d20a9c0859fc6838a3a84e0426a\core.a(tasks.c.o)
                0x0000000000000b64                xTaskGetSchedulerState
 .text.xTaskPriorityDisinherit
                0x0000000000000b84       0x68 C:\Users\minec\AppData\Local\arduino\sketches\CBAA8D2BDA3D583126B4F168E555FB8A/..\..\cores\69cc2d20a9c0859fc6838a3a84e0426a\core.a(tasks.c.o)
                0x0000000000000b84                xTaskPriorityDisinherit
 .text.ulGetCurrentStackLowAddress
                0x0000000000000bec       0x10 C:\Users\minec\AppData\Local\arduino\sketches\CBAA8D2BDA3D583126B4F168E555FB8A/..\..\cores\69cc2d20a9c0859fc6838a3a84e0426a\core.a(tasks.c.o)
                0x0000000000000bec                ulGetCurrentStackLowAddress
 .text.ulGetCurrentStackHighAddress
                0x0000000000000bfc       0x10 C:\Users\minec\AppData\Local\arduino\sketches\CBAA8D2BDA3D583126B4F168E555FB8A/..\..\cores\69cc2d20a9c0859fc6838a3a84e0426a\core.a(tasks.c.o)
                0x0000000000000bfc                ulGetCurrentStackHighAddress
 .text.prvCheckForValidListAndQueue
                0x0000000000000c0c       0x5c C:\Users\minec\AppData\Local\arduino\sketches\CBAA8D2BDA3D583126B4F168E555FB8A/..\..\cores\69cc2d20a9c0859fc6838a3a84e0426a\core.a(timers.c.o)
 .text.prvInsertTimerInActiveList
                0x0000000000000c68       0x3c C:\Users\minec\AppData\Local\arduino\sketches\CBAA8D2BDA3D583126B4F168E555FB8A/..\..\cores\69cc2d20a9c0859fc6838a3a84e0426a\core.a(timers.c.o)
 .text.xTimerCreateTimerTask
                0x0000000000000ca4       0x54 C:\Users\minec\AppData\Local\arduino\sketches\CBAA8D2BDA3D583126B4F168E555FB8A/..\..\cores\69cc2d20a9c0859fc6838a3a84e0426a\core.a(timers.c.o)
                0x0000000000000ca4                xTimerCreateTimerTask
 .text.xTimerGenericCommand
                0x0000000000000cf8       0x44 C:\Users\minec\AppData\Local\arduino\sketches\CBAA8D2BDA3D583126B4F168E555FB8A/..\..\cores\69cc2d20a9c0859fc6838a3a84e0426a\core.a(timers.c.o)
                0x0000000000000cf8                xTimerGenericCommand
 .text.prvSampleTimeNow
                0x0000000000000d3c       0x94 C:\Users\minec\AppData\Local\arduino\sketches\CBAA8D2BDA3D583126B4F168E555FB8A/..\..\cores\69cc2d20a9c0859fc6838a3a84e0426a\core.a(timers.c.o)
 .text.prvTimerTask
                0x0000000000000dd0      0x1a0 C:\Users\minec\AppData\Local\arduino\sketches\CBAA8D2BDA3D583126B4F168E555FB8A/..\..\cores\69cc2d20a9c0859fc6838a3a84e0426a\core.a(timers.c.o)
 .text._Z8loopTaskPv
                0x0000000000000f70       0x20 C:\Users\minec\AppData\Local\arduino\sketches\CBAA8D2BDA3D583126B4F168E555FB8A/..\..\cores\69cc2d20a9c0859fc6838a3a84e0426a\core.a(main.cpp.o)
                0x0000000000000f70                loopTask(void*)
 .text._Z11initVariantv
                0x0000000000000f90        0x2 C:\Users\minec\AppData\Local\arduino\sketches\CBAA8D2BDA3D583126B4F168E555FB8A/..\..\cores\69cc2d20a9c0859fc6838a3a84e0426a\core.a(main.cpp.o)
                0x0000000000000f90                initVariant()
 *fill*         0x0000000000000f92        0x2 
 .text.startup.main
                0x0000000000000f94       0x6c C:\Users\minec\AppData\Local\arduino\sketches\CBAA8D2BDA3D583126B4F168E555FB8A/..\..\cores\69cc2d20a9c0859fc6838a3a84e0426a\core.a(main.cpp.o)
                0x0000000000000f94                main
 .text          0x0000000000001000       0x80 C:\Users\minec\AppData\Local\arduino\sketches\CBAA8D2BDA3D583126B4F168E555FB8A/..\..\cores\69cc2d20a9c0859fc6838a3a84e0426a\core.a(gcc_startup_nrf52810.S.o)
                0x0000000000001000                Reset_Handler
                0x000000000000106c                NMI_Handler
                0x0000000000001070                MemoryManagement_Handler
                0x0000000000001072                BusFault_Handler
                0x0000000000001074                UsageFault_Handler
                0x0000000000001078                DebugMon_Handler
                0x000000000000107c                SysTick_Handler
                0x000000000000107e                PDM_IRQHandler
                0x000000000000107e                GPIOTE_IRQHandler
                0x000000000000107e                TEMP_IRQHandler
                0x000000000000107e                QDEC_IRQHandler
                0x000000000000107e                RADIO_IRQHandler
                0x000000000000107e                RTC0_IRQHandler
                0x000000000000107e                SWI5_IRQHandler
                0x000000000000107e                TIMER0_IRQHandler
                0x000000000000107e                SWI4_IRQHandler
                0x000000000000107e                TIMER1_IRQHandler
                0x000000000000107e                ECB_IRQHandler
                0x000000000000107e                Default_Handler
                0x000000000000107e                SWI3_IRQHandler
                0x000000000000107e                SPIM0_SPIS0_SPI0_IRQHandler
                0x000000000000107e                SAADC_IRQHandler
                0x000000000000107e                CCM_AAR_IRQHandler
                0x000000000000107e                WDT_IRQHandler
                0x000000000000107e                SWI2_IRQHandler
                0x000000000000107e                RNG_IRQHandler
                0x000000000000107e                COMP_IRQHandler
                0x000000000000107e                PWM0_IRQHandler
                0x000000000000107e                SWI1_EGU1_IRQHandler
                0x000000000000107e                TWIM0_TWIS0_TWI0_IRQHandler
                0x000000000000107e                SWI0_EGU0_IRQHandler
                0x000000000000107e                TIMER2_IRQHandler
 .text.nrf52_errata_31
                0x0000000000001080       0x34 C:\Users\minec\AppData\Local\arduino\sketches\CBAA8D2BDA3D583126B4F168E555FB8A/..\..\cores\69cc2d20a9c0859fc6838a3a84e0426a\core.a(system_nrf52810.c.o)
 .text.SystemInit
                0x00000000000010b4      0x11c C:\Users\minec\AppData\Local\arduino\sketches\CBAA8D2BDA3D583126B4F168E555FB8A/..\..\cores\69cc2d20a9c0859fc6838a3a84e0426a\core.a(system_nrf52810.c.o)
                0x00000000000010b4                SystemInit
 .text.__NVIC_SystemReset
                0x00000000000011d0       0x24 C:\Users\minec\AppData\Local\arduino\sketches\CBAA8D2BDA3D583126B4F168E555FB8A/..\..\cores\69cc2d20a9c0859fc6838a3a84e0426a\core.a(rtos.cpp.o)
 .text._ZN9nableRtosD2Ev
                0x00000000000011f4        0x2 C:\Users\minec\AppData\Local\arduino\sketches\CBAA8D2BDA3D583126B4F168E555FB8A/..\..\cores\69cc2d20a9c0859fc6838a3a84e0426a\core.a(rtos.cpp.o)
                0x00000000000011f4                nableRtos::~nableRtos()
                0x00000000000011f4                nableRtos::~nableRtos()
 *fill*         0x00000000000011f6        0x2 
 .text.vApplicationStackOverflowHook
                0x00000000000011f8       0x24 C:\Users\minec\AppData\Local\arduino\sketches\CBAA8D2BDA3D583126B4F168E555FB8A/..\..\cores\69cc2d20a9c0859fc6838a3a84e0426a\core.a(rtos.cpp.o)
                0x00000000000011f8                vApplicationStackOverflowHook
 .text.vApplicationMallocFailedHook
                0x000000000000121c       0x20 C:\Users\minec\AppData\Local\arduino\sketches\CBAA8D2BDA3D583126B4F168E555FB8A/..\..\cores\69cc2d20a9c0859fc6838a3a84e0426a\core.a(rtos.cpp.o)
                0x000000000000121c                vApplicationMallocFailedHook
 .text.vApplicationIdleHook
                0x000000000000123c       0x14 C:\Users\minec\AppData\Local\arduino\sketches\CBAA8D2BDA3D583126B4F168E555FB8A/..\..\cores\69cc2d20a9c0859fc6838a3a84e0426a\core.a(rtos.cpp.o)
                0x000000000000123c                vApplicationIdleHook
 .text.startup._GLOBAL__sub_I_vApplicationStackOverflowHook
                0x0000000000001250       0x18 C:\Users\minec\AppData\Local\arduino\sketches\CBAA8D2BDA3D583126B4F168E555FB8A/..\..\cores\69cc2d20a9c0859fc6838a3a84e0426a\core.a(rtos.cpp.o)
 .text.__NVIC_SystemReset
                0x0000000000001268       0x24 C:\Users\minec\AppData\Local\arduino\sketches\CBAA8D2BDA3D583126B4F168E555FB8A/..\..\cores\69cc2d20a9c0859fc6838a3a84e0426a\core.a(debug_utils.cpp.o)
 .text._ZL11find_callermm
                0x000000000000128c       0x80 C:\Users\minec\AppData\Local\arduino\sketches\CBAA8D2BDA3D583126B4F168E555FB8A/..\..\cores\69cc2d20a9c0859fc6838a3a84e0426a\core.a(debug_utils.cpp.o)
 .text._Z15dump_call_stackv
                0x000000000000130c       0xec C:\Users\minec\AppData\Local\arduino\sketches\CBAA8D2BDA3D583126B4F168E555FB8A/..\..\cores\69cc2d20a9c0859fc6838a3a84e0426a\core.a(debug_utils.cpp.o)
                0x000000000000130c                dump_call_stack()
 .text.HardFault_Handler
                0x00000000000013f8       0x14 C:\Users\minec\AppData\Local\arduino\sketches\CBAA8D2BDA3D583126B4F168E555FB8A/..\..\cores\69cc2d20a9c0859fc6838a3a84e0426a\core.a(debug_utils.cpp.o)
                0x00000000000013f8                HardFault_Handler
 .text.Hardfault_handler_cpp
                0x000000000000140c      0x2a4 C:\Users\minec\AppData\Local\arduino\sketches\CBAA8D2BDA3D583126B4F168E555FB8A/..\..\cores\69cc2d20a9c0859fc6838a3a84e0426a\core.a(debug_utils.cpp.o)
                0x000000000000140c                Hardfault_handler_cpp
 .text.hw_clock_evt_handler
                0x00000000000016b0        0x2 C:\Users\minec\AppData\Local\arduino\sketches\CBAA8D2BDA3D583126B4F168E555FB8A/..\..\cores\69cc2d20a9c0859fc6838a3a84e0426a\core.a(wiring.c.o)
 *fill*         0x00000000000016b2        0x2 
 .text.init     0x00000000000016b4       0x54 C:\Users\minec\AppData\Local\arduino\sketches\CBAA8D2BDA3D583126B4F168E555FB8A/..\..\cores\69cc2d20a9c0859fc6838a3a84e0426a\core.a(wiring.c.o)
                0x00000000000016b4                init
 .text.pinMode  0x0000000000001708       0x50 C:\Users\minec\AppData\Local\arduino\sketches\CBAA8D2BDA3D583126B4F168E555FB8A/..\..\cores\69cc2d20a9c0859fc6838a3a84e0426a\core.a(wiring_digital.c.o)
                0x0000000000001708                pinMode
 .text.digitalWrite
                0x0000000000001758       0x24 C:\Users\minec\AppData\Local\arduino\sketches\CBAA8D2BDA3D583126B4F168E555FB8A/..\..\cores\69cc2d20a9c0859fc6838a3a84e0426a\core.a(wiring_digital.c.o)
                0x0000000000001758                digitalWrite
 .text._ZN5Print17availableForWriteEv
                0x000000000000177c        0x4 C:\Users\minec\AppData\Local\arduino\sketches\CBAA8D2BDA3D583126B4F168E555FB8A/..\..\cores\69cc2d20a9c0859fc6838a3a84e0426a\core.a(Print.cpp.o)
                0x000000000000177c                Print::availableForWrite()
 .text._ZN5Print5writeEPKhj
                0x0000000000001780       0x2a C:\Users\minec\AppData\Local\arduino\sketches\CBAA8D2BDA3D583126B4F168E555FB8A/..\..\cores\69cc2d20a9c0859fc6838a3a84e0426a\core.a(Print.cpp.o)
                0x0000000000001780                Print::write(unsigned char const*, unsigned int)
 .text._ZN5Print5writeEPKc
                0x00000000000017aa       0x20 C:\Users\minec\AppData\Local\arduino\sketches\CBAA8D2BDA3D583126B4F168E555FB8A/..\..\cores\69cc2d20a9c0859fc6838a3a84e0426a\core.a(Print.cpp.o)
                0x00000000000017aa                Print::write(char const*)
 *fill*         0x00000000000017ca        0x2 
 .text._ZN5Print7printlnEv
                0x00000000000017cc       0x10 C:\Users\minec\AppData\Local\arduino\sketches\CBAA8D2BDA3D583126B4F168E555FB8A/..\..\cores\69cc2d20a9c0859fc6838a3a84e0426a\core.a(Print.cpp.o)
                0x00000000000017cc                Print::println()
 .text._ZN5Print7printlnEPK19__FlashStringHelper
                0x00000000000017dc       0x14 C:\Users\minec\AppData\Local\arduino\sketches\CBAA8D2BDA3D583126B4F168E555FB8A/..\..\cores\69cc2d20a9c0859fc6838a3a84e0426a\core.a(Print.cpp.o)
                0x00000000000017dc                Print::println(__FlashStringHelper const*)
 .text._ZN5Print7printlnEPKc
                0x00000000000017f0        0x4 C:\Users\minec\AppData\Local\arduino\sketches\CBAA8D2BDA3D583126B4F168E555FB8A/..\..\cores\69cc2d20a9c0859fc6838a3a84e0426a\core.a(Print.cpp.o)
                0x00000000000017f0                Print::println(char const*)
 .text._ZN5Print6printfEPKcz
                0x00000000000017f4       0x1a C:\Users\minec\AppData\Local\arduino\sketches\CBAA8D2BDA3D583126B4F168E555FB8A/..\..\cores\69cc2d20a9c0859fc6838a3a84e0426a\core.a(Print.cpp.o)
                0x00000000000017f4                Print::printf(char const*, ...)
 .text._ZN4Uart5beginEm
                0x000000000000180e        0x8 C:\Users\minec\AppData\Local\arduino\sketches\CBAA8D2BDA3D583126B4F168E555FB8A/..\..\cores\69cc2d20a9c0859fc6838a3a84e0426a\core.a(Uart.cpp.o)
                0x000000000000180e                Uart::begin(unsigned long)
 .text._ZN4Uart5flushEv
                0x0000000000001816        0x2 C:\Users\minec\AppData\Local\arduino\sketches\CBAA8D2BDA3D583126B4F168E555FB8A/..\..\cores\69cc2d20a9c0859fc6838a3a84e0426a\core.a(Uart.cpp.o)
                0x0000000000001816                Uart::flush()
 .text._ZN4Uart5writeEh
                0x0000000000001818       0x1e C:\Users\minec\AppData\Local\arduino\sketches\CBAA8D2BDA3D583126B4F168E555FB8A/..\..\cores\69cc2d20a9c0859fc6838a3a84e0426a\core.a(Uart.cpp.o)
                0x0000000000001818                Uart::write(unsigned char)
 .text._ZN4UartcvbEv
                0x0000000000001836        0xe C:\Users\minec\AppData\Local\arduino\sketches\CBAA8D2BDA3D583126B4F168E555FB8A/..\..\cores\69cc2d20a9c0859fc6838a3a84e0426a\core.a(Uart.cpp.o)
                0x0000000000001836                Uart::operator bool()
 .text._ZN4UartD2Ev
                0x0000000000001844        0x2 C:\Users\minec\AppData\Local\arduino\sketches\CBAA8D2BDA3D583126B4F168E555FB8A/..\..\cores\69cc2d20a9c0859fc6838a3a84e0426a\core.a(Uart.cpp.o)
                0x0000000000001844                Uart::~Uart()
                0x0000000000001844                Uart::~Uart()
 *fill*         0x0000000000001846        0x2 
 .text._ZN4Uart3endEv
                0x0000000000001848       0x58 C:\Users\minec\AppData\Local\arduino\sketches\CBAA8D2BDA3D583126B4F168E555FB8A/..\..\cores\69cc2d20a9c0859fc6838a3a84e0426a\core.a(Uart.cpp.o)
                0x0000000000001848                Uart::end()
 .text._ZN4Uart9availableEv
                0x00000000000018a0        0x6 C:\Users\minec\AppData\Local\arduino\sketches\CBAA8D2BDA3D583126B4F168E555FB8A/..\..\cores\69cc2d20a9c0859fc6838a3a84e0426a\core.a(Uart.cpp.o)
                0x00000000000018a0                Uart::available()
 .text._ZN4Uart4peekEv
                0x00000000000018a6        0x6 C:\Users\minec\AppData\Local\arduino\sketches\CBAA8D2BDA3D583126B4F168E555FB8A/..\..\cores\69cc2d20a9c0859fc6838a3a84e0426a\core.a(Uart.cpp.o)
                0x00000000000018a6                Uart::peek()
 .text._ZN4Uart4readEv
                0x00000000000018ac        0x6 C:\Users\minec\AppData\Local\arduino\sketches\CBAA8D2BDA3D583126B4F168E555FB8A/..\..\cores\69cc2d20a9c0859fc6838a3a84e0426a\core.a(Uart.cpp.o)
                0x00000000000018ac                Uart::read()
 .text._ZN4UartD0Ev
                0x00000000000018b2        0xe C:\Users\minec\AppData\Local\arduino\sketches\CBAA8D2BDA3D583126B4F168E555FB8A/..\..\cores\69cc2d20a9c0859fc6838a3a84e0426a\core.a(Uart.cpp.o)
                0x00000000000018b2                Uart::~Uart()
 .text._ZN4Uart5beginEmt
                0x00000000000018c0      0x174 C:\Users\minec\AppData\Local\arduino\sketches\CBAA8D2BDA3D583126B4F168E555FB8A/..\..\cores\69cc2d20a9c0859fc6838a3a84e0426a\core.a(Uart.cpp.o)
                0x00000000000018c0                Uart::begin(unsigned long, unsigned short)
 .text._Z14serialEventRunv
                0x0000000000001a34       0x1c C:\Users\minec\AppData\Local\arduino\sketches\CBAA8D2BDA3D583126B4F168E555FB8A/..\..\cores\69cc2d20a9c0859fc6838a3a84e0426a\core.a(Uart.cpp.o)
                0x0000000000001a34                serialEventRun()
 .text._ZN4UartC2EP13NRF_UART_Type9IRQn_Typehh
                0x0000000000001a50       0x54 C:\Users\minec\AppData\Local\arduino\sketches\CBAA8D2BDA3D583126B4F168E555FB8A/..\..\cores\69cc2d20a9c0859fc6838a3a84e0426a\core.a(Uart.cpp.o)
                0x0000000000001a50                Uart::Uart(NRF_UART_Type*, IRQn_Type, unsigned char, unsigned char)
                0x0000000000001a50                Uart::Uart(NRF_UART_Type*, IRQn_Type, unsigned char, unsigned char)
 .text._ZN4Uart10IrqHandlerEv
                0x0000000000001aa4       0x22 C:\Users\minec\AppData\Local\arduino\sketches\CBAA8D2BDA3D583126B4F168E555FB8A/..\..\cores\69cc2d20a9c0859fc6838a3a84e0426a\core.a(Uart.cpp.o)
                0x0000000000001aa4                Uart::IrqHandler()
 *fill*         0x0000000000001ac6        0x2 
 .text.UARTE0_UART0_IRQHandler
                0x0000000000001ac8        0xc C:\Users\minec\AppData\Local\arduino\sketches\CBAA8D2BDA3D583126B4F168E555FB8A/..\..\cores\69cc2d20a9c0859fc6838a3a84e0426a\core.a(Uart.cpp.o)
                0x0000000000001ac8                UARTE0_UART0_IRQHandler
 .text.startup._GLOBAL__sub_I__ZN4UartC2EP13NRF_UART_Type9IRQn_Typehh
                0x0000000000001ad4       0x34 C:\Users\minec\AppData\Local\arduino\sketches\CBAA8D2BDA3D583126B4F168E555FB8A/..\..\cores\69cc2d20a9c0859fc6838a3a84e0426a\core.a(Uart.cpp.o)
 .text.prvInsertBlockIntoFreeList
                0x0000000000001b08       0x48 C:\Users\minec\AppData\Local\arduino\sketches\CBAA8D2BDA3D583126B4F168E555FB8A/..\..\cores\69cc2d20a9c0859fc6838a3a84e0426a\core.a(heap_4.c.o)
 .text.pvPortMalloc
                0x0000000000001b50      0x10c C:\Users\minec\AppData\Local\arduino\sketches\CBAA8D2BDA3D583126B4F168E555FB8A/..\..\cores\69cc2d20a9c0859fc6838a3a84e0426a\core.a(heap_4.c.o)
                0x0000000000001b50                pvPortMalloc
 .text.vPortFree
                0x0000000000001c5c       0x58 C:\Users\minec\AppData\Local\arduino\sketches\CBAA8D2BDA3D583126B4F168E555FB8A/..\..\cores\69cc2d20a9c0859fc6838a3a84e0426a\core.a(heap_4.c.o)
                0x0000000000001c5c                vPortFree
 .text.vListInitialise
                0x0000000000001cb4       0x16 C:\Users\minec\AppData\Local\arduino\sketches\CBAA8D2BDA3D583126B4F168E555FB8A/..\..\cores\69cc2d20a9c0859fc6838a3a84e0426a\core.a(list.c.o)
                0x0000000000001cb4                vListInitialise
 .text.vListInitialiseItem
                0x0000000000001cca        0x6 C:\Users\minec\AppData\Local\arduino\sketches\CBAA8D2BDA3D583126B4F168E555FB8A/..\..\cores\69cc2d20a9c0859fc6838a3a84e0426a\core.a(list.c.o)
                0x0000000000001cca                vListInitialiseItem
 .text.vListInsertEnd
                0x0000000000001cd0       0x18 C:\Users\minec\AppData\Local\arduino\sketches\CBAA8D2BDA3D583126B4F168E555FB8A/..\..\cores\69cc2d20a9c0859fc6838a3a84e0426a\core.a(list.c.o)
                0x0000000000001cd0                vListInsertEnd
 .text.vListInsert
                0x0000000000001ce8       0x2e C:\Users\minec\AppData\Local\arduino\sketches\CBAA8D2BDA3D583126B4F168E555FB8A/..\..\cores\69cc2d20a9c0859fc6838a3a84e0426a\core.a(list.c.o)
                0x0000000000001ce8                vListInsert
 .text.uxListRemove
                0x0000000000001d16       0x20 C:\Users\minec\AppData\Local\arduino\sketches\CBAA8D2BDA3D583126B4F168E555FB8A/..\..\cores\69cc2d20a9c0859fc6838a3a84e0426a\core.a(list.c.o)
                0x0000000000001d16                uxListRemove
 .text.prvTaskExitError
                0x0000000000001d36        0x4 C:\Users\minec\AppData\Local\arduino\sketches\CBAA8D2BDA3D583126B4F168E555FB8A/..\..\cores\69cc2d20a9c0859fc6838a3a84e0426a\core.a(port_nrf52.c.o)
 *fill*         0x0000000000001d3a        0x2 
 .text.pxPortInitialiseStack
                0x0000000000001d3c       0x24 C:\Users\minec\AppData\Local\arduino\sketches\CBAA8D2BDA3D583126B4F168E555FB8A/..\..\cores\69cc2d20a9c0859fc6838a3a84e0426a\core.a(port_nrf52.c.o)
                0x0000000000001d3c                pxPortInitialiseStack
 .text.xPortStartScheduler
                0x0000000000001d60       0x38 C:\Users\minec\AppData\Local\arduino\sketches\CBAA8D2BDA3D583126B4F168E555FB8A/..\..\cores\69cc2d20a9c0859fc6838a3a84e0426a\core.a(port_nrf52.c.o)
                0x0000000000001d60                xPortStartScheduler
 .text.vPortEnterCritical
                0x0000000000001d98       0x10 C:\Users\minec\AppData\Local\arduino\sketches\CBAA8D2BDA3D583126B4F168E555FB8A/..\..\cores\69cc2d20a9c0859fc6838a3a84e0426a\core.a(port_nrf52.c.o)
                0x0000000000001d98                vPortEnterCritical
 .text.vPortExitCritical
                0x0000000000001da8       0x14 C:\Users\minec\AppData\Local\arduino\sketches\CBAA8D2BDA3D583126B4F168E555FB8A/..\..\cores\69cc2d20a9c0859fc6838a3a84e0426a\core.a(port_nrf52.c.o)
                0x0000000000001da8                vPortExitCritical
 .text.ulSetInterruptMaskFromISR
                0x0000000000001dbc        0x8 C:\Users\minec\AppData\Local\arduino\sketches\CBAA8D2BDA3D583126B4F168E555FB8A/..\..\cores\69cc2d20a9c0859fc6838a3a84e0426a\core.a(port_nrf52.c.o)
                0x0000000000001dbc                ulSetInterruptMaskFromISR
 .text.vClearInterruptMaskFromISR
                0x0000000000001dc4        0x6 C:\Users\minec\AppData\Local\arduino\sketches\CBAA8D2BDA3D583126B4F168E555FB8A/..\..\cores\69cc2d20a9c0859fc6838a3a84e0426a\core.a(port_nrf52.c.o)
                0x0000000000001dc4                vClearInterruptMaskFromISR
 *fill*         0x0000000000001dca        0x2 
 .text.RTC1_IRQHandler
                0x0000000000001dcc       0x70 C:\Users\minec\AppData\Local\arduino\sketches\CBAA8D2BDA3D583126B4F168E555FB8A/..\..\cores\69cc2d20a9c0859fc6838a3a84e0426a\core.a(port_nrf52_systick.c.o)
                0x0000000000001dcc                RTC1_IRQHandler
 .text.vPortSetupTimerInterrupt
                0x0000000000001e3c       0x30 C:\Users\minec\AppData\Local\arduino\sketches\CBAA8D2BDA3D583126B4F168E555FB8A/..\..\cores\69cc2d20a9c0859fc6838a3a84e0426a\core.a(port_nrf52_systick.c.o)
                0x0000000000001e3c                vPortSetupTimerInterrupt
 .text.vPortSuppressTicksAndSleep
                0x0000000000001e6c       0xb4 C:\Users\minec\AppData\Local\arduino\sketches\CBAA8D2BDA3D583126B4F168E555FB8A/..\..\cores\69cc2d20a9c0859fc6838a3a84e0426a\core.a(port_nrf52_systick.c.o)
                0x0000000000001e6c                vPortSuppressTicksAndSleep
 .text.prvIsQueueEmpty
                0x0000000000001f20       0x16 C:\Users\minec\AppData\Local\arduino\sketches\CBAA8D2BDA3D583126B4F168E555FB8A/..\..\cores\69cc2d20a9c0859fc6838a3a84e0426a\core.a(queue.c.o)
 .text.prvCopyDataToQueue
                0x0000000000001f36       0x6a C:\Users\minec\AppData\Local\arduino\sketches\CBAA8D2BDA3D583126B4F168E555FB8A/..\..\cores\69cc2d20a9c0859fc6838a3a84e0426a\core.a(queue.c.o)
 .text.prvCopyDataFromQueue
                0x0000000000001fa0       0x28 C:\Users\minec\AppData\Local\arduino\sketches\CBAA8D2BDA3D583126B4F168E555FB8A/..\..\cores\69cc2d20a9c0859fc6838a3a84e0426a\core.a(queue.c.o)
 .text.prvUnlockQueue
                0x0000000000001fc8       0x70 C:\Users\minec\AppData\Local\arduino\sketches\CBAA8D2BDA3D583126B4F168E555FB8A/..\..\cores\69cc2d20a9c0859fc6838a3a84e0426a\core.a(queue.c.o)
 .text.xQueueGenericReset
                0x0000000000002038       0x6c C:\Users\minec\AppData\Local\arduino\sketches\CBAA8D2BDA3D583126B4F168E555FB8A/..\..\cores\69cc2d20a9c0859fc6838a3a84e0426a\core.a(queue.c.o)
                0x0000000000002038                xQueueGenericReset
 .text.xQueueGenericCreateStatic
                0x00000000000020a4       0x24 C:\Users\minec\AppData\Local\arduino\sketches\CBAA8D2BDA3D583126B4F168E555FB8A/..\..\cores\69cc2d20a9c0859fc6838a3a84e0426a\core.a(queue.c.o)
                0x00000000000020a4                xQueueGenericCreateStatic
 .text.xQueueGenericSend
                0x00000000000020c8      0x108 C:\Users\minec\AppData\Local\arduino\sketches\CBAA8D2BDA3D583126B4F168E555FB8A/..\..\cores\69cc2d20a9c0859fc6838a3a84e0426a\core.a(queue.c.o)
                0x00000000000020c8                xQueueGenericSend
 .text.xQueueGenericSendFromISR
                0x00000000000021d0       0x6c C:\Users\minec\AppData\Local\arduino\sketches\CBAA8D2BDA3D583126B4F168E555FB8A/..\..\cores\69cc2d20a9c0859fc6838a3a84e0426a\core.a(queue.c.o)
                0x00000000000021d0                xQueueGenericSendFromISR
 .text.xQueueReceive
                0x000000000000223c       0xf4 C:\Users\minec\AppData\Local\arduino\sketches\CBAA8D2BDA3D583126B4F168E555FB8A/..\..\cores\69cc2d20a9c0859fc6838a3a84e0426a\core.a(queue.c.o)
                0x000000000000223c                xQueueReceive
 .text.vQueueWaitForMessageRestricted
                0x0000000000002330       0x46 C:\Users\minec\AppData\Local\arduino\sketches\CBAA8D2BDA3D583126B4F168E555FB8A/..\..\cores\69cc2d20a9c0859fc6838a3a84e0426a\core.a(queue.c.o)
                0x0000000000002330                vQueueWaitForMessageRestricted
 *fill*         0x0000000000002376        0x2 
 .text.vApplicationGetIdleTaskMemory
                0x0000000000002378       0x18 C:\Users\minec\AppData\Local\arduino\sketches\CBAA8D2BDA3D583126B4F168E555FB8A/..\..\cores\69cc2d20a9c0859fc6838a3a84e0426a\core.a(static_tasks.c.o)
                0x0000000000002378                vApplicationGetIdleTaskMemory
 .text.vApplicationGetTimerTaskMemory
                0x0000000000002390       0x18 C:\Users\minec\AppData\Local\arduino\sketches\CBAA8D2BDA3D583126B4F168E555FB8A/..\..\cores\69cc2d20a9c0859fc6838a3a84e0426a\core.a(static_tasks.c.o)
                0x0000000000002390                vApplicationGetTimerTaskMemory
 .text._out_buffer
                0x00000000000023a8        0x8 C:\Users\minec\AppData\Local\arduino\sketches\CBAA8D2BDA3D583126B4F168E555FB8A/..\..\cores\69cc2d20a9c0859fc6838a3a84e0426a\core.a(printf.c.o)
 .text._out_null
                0x00000000000023b0        0x2 C:\Users\minec\AppData\Local\arduino\sketches\CBAA8D2BDA3D583126B4F168E555FB8A/..\..\cores\69cc2d20a9c0859fc6838a3a84e0426a\core.a(printf.c.o)
 .text._out_rev
                0x00000000000023b2       0x86 C:\Users\minec\AppData\Local\arduino\sketches\CBAA8D2BDA3D583126B4F168E555FB8A/..\..\cores\69cc2d20a9c0859fc6838a3a84e0426a\core.a(printf.c.o)
 .text._ntoa    0x0000000000002438      0x1b0 C:\Users\minec\AppData\Local\arduino\sketches\CBAA8D2BDA3D583126B4F168E555FB8A/..\..\cores\69cc2d20a9c0859fc6838a3a84e0426a\core.a(printf.c.o)
 .text.get_components
                0x00000000000025e8      0x11c C:\Users\minec\AppData\Local\arduino\sketches\CBAA8D2BDA3D583126B4F168E555FB8A/..\..\cores\69cc2d20a9c0859fc6838a3a84e0426a\core.a(printf.c.o)
 .text._out_char
                0x0000000000002704        0x8 C:\Users\minec\AppData\Local\arduino\sketches\CBAA8D2BDA3D583126B4F168E555FB8A/..\..\cores\69cc2d20a9c0859fc6838a3a84e0426a\core.a(printf.c.o)
 .text.sprint_broken_up_decimal.isra.0
                0x000000000000270c      0x192 C:\Users\minec\AppData\Local\arduino\sketches\CBAA8D2BDA3D583126B4F168E555FB8A/..\..\cores\69cc2d20a9c0859fc6838a3a84e0426a\core.a(printf.c.o)
 .text.update_normalization
                0x000000000000289e       0x76 C:\Users\minec\AppData\Local\arduino\sketches\CBAA8D2BDA3D583126B4F168E555FB8A/..\..\cores\69cc2d20a9c0859fc6838a3a84e0426a\core.a(printf.c.o)
                0x000000000000289e                update_normalization
 *fill*         0x0000000000002914        0x4 
 .text.sprint_exponential_number
                0x0000000000002918      0x504 C:\Users\minec\AppData\Local\arduino\sketches\CBAA8D2BDA3D583126B4F168E555FB8A/..\..\cores\69cc2d20a9c0859fc6838a3a84e0426a\core.a(printf.c.o)
 *fill*         0x0000000000002e1c        0x4 
 .text.sprint_floating_point
                0x0000000000002e20      0x19c C:\Users\minec\AppData\Local\arduino\sketches\CBAA8D2BDA3D583126B4F168E555FB8A/..\..\cores\69cc2d20a9c0859fc6838a3a84e0426a\core.a(printf.c.o)
 .text._vsnprintf
                0x0000000000002fbc      0x5d8 C:\Users\minec\AppData\Local\arduino\sketches\CBAA8D2BDA3D583126B4F168E555FB8A/..\..\cores\69cc2d20a9c0859fc6838a3a84e0426a\core.a(printf.c.o)
 .text.snprintf
                0x0000000000003594       0x28 C:\Users\minec\AppData\Local\arduino\sketches\CBAA8D2BDA3D583126B4F168E555FB8A/..\..\cores\69cc2d20a9c0859fc6838a3a84e0426a\core.a(printf.c.o)
                0x0000000000003594                snprintf
 .text.vprintf  0x00000000000035bc       0x1c C:\Users\minec\AppData\Local\arduino\sketches\CBAA8D2BDA3D583126B4F168E555FB8A/..\..\cores\69cc2d20a9c0859fc6838a3a84e0426a\core.a(printf.c.o)
                0x00000000000035bc                vprintf
 .text._putchar
                0x00000000000035d8       0x90 C:\Users\minec\AppData\Local\arduino\sketches\CBAA8D2BDA3D583126B4F168E555FB8A/..\..\cores\69cc2d20a9c0859fc6838a3a84e0426a\core.a(putchar.cpp.o)
                0x00000000000035d8                _putchar
 .text._ZdlPvj  0x0000000000003668        0x4 C:\Users\minec\AppData\Local\arduino\sketches\CBAA8D2BDA3D583126B4F168E555FB8A/..\..\cores\69cc2d20a9c0859fc6838a3a84e0426a\core.a(new.cpp.o)
                0x0000000000003668                operator delete(void*, unsigned int)
 .text.nrfx_clock_init
                0x000000000000366c       0x20 C:\Users\minec\AppData\Local\arduino\sketches\CBAA8D2BDA3D583126B4F168E555FB8A/..\..\cores\69cc2d20a9c0859fc6838a3a84e0426a\core.a(nrfx_clock.c.o)
                0x000000000000366c                nrfx_clock_init
 .text.nrfx_clock_enable
                0x000000000000368c       0x30 C:\Users\minec\AppData\Local\arduino\sketches\CBAA8D2BDA3D583126B4F168E555FB8A/..\..\cores\69cc2d20a9c0859fc6838a3a84e0426a\core.a(nrfx_clock.c.o)
                0x000000000000368c                nrfx_clock_enable
 .text.nrfx_clock_start
                0x00000000000036bc       0x42 C:\Users\minec\AppData\Local\arduino\sketches\CBAA8D2BDA3D583126B4F168E555FB8A/..\..\cores\69cc2d20a9c0859fc6838a3a84e0426a\core.a(nrfx_clock.c.o)
                0x00000000000036bc                nrfx_clock_start
 *fill*         0x00000000000036fe        0x2 
 .text.nrfx_clock_irq_handler
                0x0000000000003700       0x64 C:\Users\minec\AppData\Local\arduino\sketches\CBAA8D2BDA3D583126B4F168E555FB8A/..\..\cores\69cc2d20a9c0859fc6838a3a84e0426a\core.a(nrfx_clock.c.o)
                0x0000000000003700                nrfx_clock_irq_handler
 .text.nrfx_power_irq_handler
                0x0000000000003764       0x80 C:\Users\minec\AppData\Local\arduino\sketches\CBAA8D2BDA3D583126B4F168E555FB8A/..\..\cores\69cc2d20a9c0859fc6838a3a84e0426a\core.a(nrfx_power.c.o)
                0x0000000000003764                nrfx_power_irq_handler
 .text.POWER_CLOCK_IRQHandler
                0x00000000000037e4        0xe C:\Users\minec\AppData\Local\arduino\sketches\CBAA8D2BDA3D583126B4F168E555FB8A/..\..\cores\69cc2d20a9c0859fc6838a3a84e0426a\core.a(nrfx_power.c.o)
                0x00000000000037e4                POWER_CLOCK_IRQHandler
 .text._ZN10RingBufferC2Ev
                0x00000000000037f2       0x16 C:\Users\minec\AppData\Local\arduino\sketches\CBAA8D2BDA3D583126B4F168E555FB8A/..\..\cores\69cc2d20a9c0859fc6838a3a84e0426a\core.a(RingBuffer.cpp.o)
                0x00000000000037f2                RingBuffer::RingBuffer()
                0x00000000000037f2                RingBuffer::RingBuffer()
 .text._ZN10RingBuffer10store_charEh
                0x0000000000003808       0x16 C:\Users\minec\AppData\Local\arduino\sketches\CBAA8D2BDA3D583126B4F168E555FB8A/..\..\cores\69cc2d20a9c0859fc6838a3a84e0426a\core.a(RingBuffer.cpp.o)
                0x0000000000003808                RingBuffer::store_char(unsigned char)
 .text._ZN10RingBuffer5clearEv
                0x000000000000381e        0x8 C:\Users\minec\AppData\Local\arduino\sketches\CBAA8D2BDA3D583126B4F168E555FB8A/..\..\cores\69cc2d20a9c0859fc6838a3a84e0426a\core.a(RingBuffer.cpp.o)
                0x000000000000381e                RingBuffer::clear()
 .text._ZN10RingBuffer9read_charEv
                0x0000000000003826       0x1c C:\Users\minec\AppData\Local\arduino\sketches\CBAA8D2BDA3D583126B4F168E555FB8A/..\..\cores\69cc2d20a9c0859fc6838a3a84e0426a\core.a(RingBuffer.cpp.o)
                0x0000000000003826                RingBuffer::read_char()
 .text._ZN10RingBuffer9availableEv
                0x0000000000003842        0xc C:\Users\minec\AppData\Local\arduino\sketches\CBAA8D2BDA3D583126B4F168E555FB8A/..\..\cores\69cc2d20a9c0859fc6838a3a84e0426a\core.a(RingBuffer.cpp.o)
                0x0000000000003842                RingBuffer::available()
 .text._ZN10RingBuffer4peekEv
                0x000000000000384e       0x10 C:\Users\minec\AppData\Local\arduino\sketches\CBAA8D2BDA3D583126B4F168E555FB8A/..\..\cores\69cc2d20a9c0859fc6838a3a84e0426a\core.a(RingBuffer.cpp.o)
                0x000000000000384e                RingBuffer::peek()
 *fill*         0x000000000000385e        0x2 
 .text.vPortStartFirstTask
                0x0000000000003860       0x1c C:\Users\minec\AppData\Local\arduino\sketches\CBAA8D2BDA3D583126B4F168E555FB8A/..\..\cores\69cc2d20a9c0859fc6838a3a84e0426a\core.a(port.c.o)
                0x0000000000003860                vPortStartFirstTask
 .text.SVC_Handler
                0x000000000000387c       0x20 C:\Users\minec\AppData\Local\arduino\sketches\CBAA8D2BDA3D583126B4F168E555FB8A/..\..\cores\69cc2d20a9c0859fc6838a3a84e0426a\core.a(port.c.o)
                0x000000000000387c                SVC_Handler
 .text.PendSV_Handler
                0x000000000000389c       0x4c C:\Users\minec\AppData\Local\arduino\sketches\CBAA8D2BDA3D583126B4F168E555FB8A/..\..\cores\69cc2d20a9c0859fc6838a3a84e0426a\core.a(port.c.o)
                0x000000000000389c                PendSV_Handler
 .text.malloc   0x00000000000038e8        0x4 C:\Users\minec\AppData\Local\arduino\sketches\CBAA8D2BDA3D583126B4F168E555FB8A/..\..\cores\69cc2d20a9c0859fc6838a3a84e0426a\core.a(malloc.c.o)
                0x00000000000038e8                pvalloc
                0x00000000000038e8                valloc
                0x00000000000038e8                malloc
 .text.__aeabi_atexit
                0x00000000000038ec        0xa c:/users/minec/appdata/local/arduino15/packages/n-able-arduino/tools/gcc-arm-none-eabi/10.3.1-2.1/bin/../lib/gcc/arm-none-eabi/10.3.1/../../../../arm-none-eabi/lib/thumb/v7e-m/nofp\libstdc++_nano.a(atexit_arm.o)
                0x00000000000038ec                __aeabi_atexit
 *fill*         0x00000000000038f6        0x2 
 .text          0x00000000000038f8      0x378 c:/users/minec/appdata/local/arduino15/packages/n-able-arduino/tools/gcc-arm-none-eabi/10.3.1-2.1/bin/../lib/gcc/arm-none-eabi/10.3.1/thumb/v7e-m/nofp\libgcc.a(_arm_addsubdf3.o)
                0x00000000000038f8                __aeabi_drsub
                0x0000000000003900                __aeabi_dsub
                0x0000000000003900                __subdf3
                0x0000000000003904                __aeabi_dadd
                0x0000000000003904                __adddf3
                0x0000000000003b7c                __floatunsidf
                0x0000000000003b7c                __aeabi_ui2d
                0x0000000000003b9c                __floatsidf
                0x0000000000003b9c                __aeabi_i2d
                0x0000000000003bc0                __aeabi_f2d
                0x0000000000003bc0                __extendsfdf2
                0x0000000000003c04                __floatundidf
                0x0000000000003c04                __aeabi_ul2d
                0x0000000000003c14                __floatdidf
                0x0000000000003c14                __aeabi_l2d
 .text          0x0000000000003c70      0x424 c:/users/minec/appdata/local/arduino15/packages/n-able-arduino/tools/gcc-arm-none-eabi/10.3.1-2.1/bin/../lib/gcc/arm-none-eabi/10.3.1/thumb/v7e-m/nofp\libgcc.a(_arm_muldivdf3.o)
                0x0000000000003c70                __aeabi_dmul
                0x0000000000003c70                __muldf3
                0x0000000000003ec4                __divdf3
                0x0000000000003ec4                __aeabi_ddiv
 .text          0x0000000000004094      0x110 c:/users/minec/appdata/local/arduino15/packages/n-able-arduino/tools/gcc-arm-none-eabi/10.3.1-2.1/bin/../lib/gcc/arm-none-eabi/10.3.1/thumb/v7e-m/nofp\libgcc.a(_arm_cmpdf2.o)
                0x0000000000004094                __gtdf2
                0x0000000000004094                __gedf2
                0x000000000000409c                __ltdf2
                0x000000000000409c                __ledf2
                0x00000000000040a4                __nedf2
                0x00000000000040a4                __eqdf2
                0x00000000000040a4                __cmpdf2
                0x0000000000004120                __aeabi_cdrcmple
                0x0000000000004130                __aeabi_cdcmpeq
                0x0000000000004130                __aeabi_cdcmple
                0x0000000000004140                __aeabi_dcmpeq
                0x0000000000004154                __aeabi_dcmplt
                0x0000000000004168                __aeabi_dcmple
                0x000000000000417c                __aeabi_dcmpge
                0x0000000000004190                __aeabi_dcmpgt
 .text          0x00000000000041a4       0x50 c:/users/minec/appdata/local/arduino15/packages/n-able-arduino/tools/gcc-arm-none-eabi/10.3.1-2.1/bin/../lib/gcc/arm-none-eabi/10.3.1/thumb/v7e-m/nofp\libgcc.a(_arm_fixdfsi.o)
                0x00000000000041a4                __aeabi_d2iz
                0x00000000000041a4                __fixdfsi
 .text          0x00000000000041f4       0x40 c:/users/minec/appdata/local/arduino15/packages/n-able-arduino/tools/gcc-arm-none-eabi/10.3.1-2.1/bin/../lib/gcc/arm-none-eabi/10.3.1/thumb/v7e-m/nofp\libgcc.a(_arm_fixunsdfsi.o)
                0x00000000000041f4                __aeabi_d2uiz
                0x00000000000041f4                __fixunsdfsi
 .text          0x0000000000004234       0xa0 c:/users/minec/appdata/local/arduino15/packages/n-able-arduino/tools/gcc-arm-none-eabi/10.3.1-2.1/bin/../lib/gcc/arm-none-eabi/10.3.1/thumb/v7e-m/nofp\libgcc.a(_aeabi_ldivmod.o)
                0x0000000000004234                __aeabi_ldivmod
 .text          0x00000000000042d4       0x30 c:/users/minec/appdata/local/arduino15/packages/n-able-arduino/tools/gcc-arm-none-eabi/10.3.1-2.1/bin/../lib/gcc/arm-none-eabi/10.3.1/thumb/v7e-m/nofp\libgcc.a(_aeabi_uldivmod.o)
                0x00000000000042d4                __aeabi_uldivmod
 .text.__fixdfdi
                0x0000000000004304       0x34 c:/users/minec/appdata/local/arduino15/packages/n-able-arduino/tools/gcc-arm-none-eabi/10.3.1-2.1/bin/../lib/gcc/arm-none-eabi/10.3.1/thumb/v7e-m/nofp\libgcc.a(_fixdfdi.o)
                0x0000000000004304                __fixdfdi
                0x0000000000004304                __aeabi_d2lz
 .text.__fixunsdfdi
                0x0000000000004338       0x3c c:/users/minec/appdata/local/arduino15/packages/n-able-arduino/tools/gcc-arm-none-eabi/10.3.1-2.1/bin/../lib/gcc/arm-none-eabi/10.3.1/thumb/v7e-m/nofp\libgcc.a(_fixunsdfdi.o)
                0x0000000000004338                __fixunsdfdi
                0x0000000000004338                __aeabi_d2ulz
 .text.__udivmoddi4
                0x0000000000004374      0x2d0 c:/users/minec/appdata/local/arduino15/packages/n-able-arduino/tools/gcc-arm-none-eabi/10.3.1-2.1/bin/../lib/gcc/arm-none-eabi/10.3.1/thumb/v7e-m/nofp\libgcc.a(_udivmoddi4.o)
                0x0000000000004374                __udivmoddi4
 .text.selfrel_offset31
                0x0000000000004644       0x14 c:/users/minec/appdata/local/arduino15/packages/n-able-arduino/tools/gcc-arm-none-eabi/10.3.1-2.1/bin/../lib/gcc/arm-none-eabi/10.3.1/thumb/v7e-m/nofp\libgcc.a(unwind-arm.o)
 .text.search_EIT_table
                0x0000000000004658       0x5c c:/users/minec/appdata/local/arduino15/packages/n-able-arduino/tools/gcc-arm-none-eabi/10.3.1-2.1/bin/../lib/gcc/arm-none-eabi/10.3.1/thumb/v7e-m/nofp\libgcc.a(unwind-arm.o)
 .text.__gnu_unwind_get_pr_addr
                0x00000000000046b4       0x28 c:/users/minec/appdata/local/arduino15/packages/n-able-arduino/tools/gcc-arm-none-eabi/10.3.1-2.1/bin/../lib/gcc/arm-none-eabi/10.3.1/thumb/v7e-m/nofp\libgcc.a(unwind-arm.o)
 .text.get_eit_entry
                0x00000000000046dc       0x9c c:/users/minec/appdata/local/arduino15/packages/n-able-arduino/tools/gcc-arm-none-eabi/10.3.1-2.1/bin/../lib/gcc/arm-none-eabi/10.3.1/thumb/v7e-m/nofp\libgcc.a(unwind-arm.o)
 .text.restore_non_core_regs
                0x0000000000004778       0x58 c:/users/minec/appdata/local/arduino15/packages/n-able-arduino/tools/gcc-arm-none-eabi/10.3.1-2.1/bin/../lib/gcc/arm-none-eabi/10.3.1/thumb/v7e-m/nofp\libgcc.a(unwind-arm.o)
 .text._Unwind_decode_typeinfo_ptr.constprop.0
                0x00000000000047d0        0xc c:/users/minec/appdata/local/arduino15/packages/n-able-arduino/tools/gcc-arm-none-eabi/10.3.1-2.1/bin/../lib/gcc/arm-none-eabi/10.3.1/thumb/v7e-m/nofp\libgcc.a(unwind-arm.o)
 .text._Unwind_DebugHook
                0x00000000000047dc        0x4 c:/users/minec/appdata/local/arduino15/packages/n-able-arduino/tools/gcc-arm-none-eabi/10.3.1-2.1/bin/../lib/gcc/arm-none-eabi/10.3.1/thumb/v7e-m/nofp\libgcc.a(unwind-arm.o)
 .text.unwind_phase2
                0x00000000000047e0       0x3c c:/users/minec/appdata/local/arduino15/packages/n-able-arduino/tools/gcc-arm-none-eabi/10.3.1-2.1/bin/../lib/gcc/arm-none-eabi/10.3.1/thumb/v7e-m/nofp\libgcc.a(unwind-arm.o)
 .text.unwind_phase2_forced
                0x000000000000481c       0xcc c:/users/minec/appdata/local/arduino15/packages/n-able-arduino/tools/gcc-arm-none-eabi/10.3.1-2.1/bin/../lib/gcc/arm-none-eabi/10.3.1/thumb/v7e-m/nofp\libgcc.a(unwind-arm.o)
 .text.__gnu_Unwind_RaiseException
                0x00000000000048e8       0x68 c:/users/minec/appdata/local/arduino15/packages/n-able-arduino/tools/gcc-arm-none-eabi/10.3.1-2.1/bin/../lib/gcc/arm-none-eabi/10.3.1/thumb/v7e-m/nofp\libgcc.a(unwind-arm.o)
                0x00000000000048e8                __gnu_Unwind_RaiseException
 .text.__gnu_Unwind_ForcedUnwind
                0x0000000000004950       0x10 c:/users/minec/appdata/local/arduino15/packages/n-able-arduino/tools/gcc-arm-none-eabi/10.3.1-2.1/bin/../lib/gcc/arm-none-eabi/10.3.1/thumb/v7e-m/nofp\libgcc.a(unwind-arm.o)
                0x0000000000004950                __gnu_Unwind_ForcedUnwind
 .text.__gnu_Unwind_Resume
                0x0000000000004960       0x44 c:/users/minec/appdata/local/arduino15/packages/n-able-arduino/tools/gcc-arm-none-eabi/10.3.1-2.1/bin/../lib/gcc/arm-none-eabi/10.3.1/thumb/v7e-m/nofp\libgcc.a(unwind-arm.o)
                0x0000000000004960                __gnu_Unwind_Resume
 .text.__gnu_Unwind_Resume_or_Rethrow
                0x00000000000049a4       0x14 c:/users/minec/appdata/local/arduino15/packages/n-able-arduino/tools/gcc-arm-none-eabi/10.3.1-2.1/bin/../lib/gcc/arm-none-eabi/10.3.1/thumb/v7e-m/nofp\libgcc.a(unwind-arm.o)
                0x00000000000049a4                __gnu_Unwind_Resume_or_Rethrow
 .text._Unwind_VRS_Get
                0x00000000000049b8       0x30 c:/users/minec/appdata/local/arduino15/packages/n-able-arduino/tools/gcc-arm-none-eabi/10.3.1-2.1/bin/../lib/gcc/arm-none-eabi/10.3.1/thumb/v7e-m/nofp\libgcc.a(unwind-arm.o)
                0x00000000000049b8                _Unwind_VRS_Get
 .text._Unwind_GetGR
                0x00000000000049e8       0x1c c:/users/minec/appdata/local/arduino15/packages/n-able-arduino/tools/gcc-arm-none-eabi/10.3.1-2.1/bin/../lib/gcc/arm-none-eabi/10.3.1/thumb/v7e-m/nofp\libgcc.a(unwind-arm.o)
 .text._Unwind_VRS_Set
                0x0000000000004a04       0x30 c:/users/minec/appdata/local/arduino15/packages/n-able-arduino/tools/gcc-arm-none-eabi/10.3.1-2.1/bin/../lib/gcc/arm-none-eabi/10.3.1/thumb/v7e-m/nofp\libgcc.a(unwind-arm.o)
                0x0000000000004a04                _Unwind_VRS_Set
 .text._Unwind_SetGR
                0x0000000000004a34       0x18 c:/users/minec/appdata/local/arduino15/packages/n-able-arduino/tools/gcc-arm-none-eabi/10.3.1-2.1/bin/../lib/gcc/arm-none-eabi/10.3.1/thumb/v7e-m/nofp\libgcc.a(unwind-arm.o)
 .text.__gnu_Unwind_Backtrace
                0x0000000000004a4c       0x84 c:/users/minec/appdata/local/arduino15/packages/n-able-arduino/tools/gcc-arm-none-eabi/10.3.1-2.1/bin/../lib/gcc/arm-none-eabi/10.3.1/thumb/v7e-m/nofp\libgcc.a(unwind-arm.o)
                0x0000000000004a4c                __gnu_Unwind_Backtrace
 .text.__gnu_unwind_pr_common
                0x0000000000004ad0      0x2a8 c:/users/minec/appdata/local/arduino15/packages/n-able-arduino/tools/gcc-arm-none-eabi/10.3.1-2.1/bin/../lib/gcc/arm-none-eabi/10.3.1/thumb/v7e-m/nofp\libgcc.a(unwind-arm.o)
 .text.__aeabi_unwind_cpp_pr0
                0x0000000000004d78        0x8 c:/users/minec/appdata/local/arduino15/packages/n-able-arduino/tools/gcc-arm-none-eabi/10.3.1-2.1/bin/../lib/gcc/arm-none-eabi/10.3.1/thumb/v7e-m/nofp\libgcc.a(unwind-arm.o)
                0x0000000000004d78                __aeabi_unwind_cpp_pr0
 .text.__aeabi_unwind_cpp_pr1
                0x0000000000004d80        0x8 c:/users/minec/appdata/local/arduino15/packages/n-able-arduino/tools/gcc-arm-none-eabi/10.3.1-2.1/bin/../lib/gcc/arm-none-eabi/10.3.1/thumb/v7e-m/nofp\libgcc.a(unwind-arm.o)
                0x0000000000004d80                __aeabi_unwind_cpp_pr1
 .text.__aeabi_unwind_cpp_pr2
                0x0000000000004d88        0x8 c:/users/minec/appdata/local/arduino15/packages/n-able-arduino/tools/gcc-arm-none-eabi/10.3.1-2.1/bin/../lib/gcc/arm-none-eabi/10.3.1/thumb/v7e-m/nofp\libgcc.a(unwind-arm.o)
                0x0000000000004d88                __aeabi_unwind_cpp_pr2
 .text._Unwind_VRS_Pop
                0x0000000000004d90      0x284 c:/users/minec/appdata/local/arduino15/packages/n-able-arduino/tools/gcc-arm-none-eabi/10.3.1-2.1/bin/../lib/gcc/arm-none-eabi/10.3.1/thumb/v7e-m/nofp\libgcc.a(unwind-arm.o)
                0x0000000000004d90                _Unwind_VRS_Pop
 .text          0x0000000000005014      0x1ac c:/users/minec/appdata/local/arduino15/packages/n-able-arduino/tools/gcc-arm-none-eabi/10.3.1-2.1/bin/../lib/gcc/arm-none-eabi/10.3.1/thumb/v7e-m/nofp\libgcc.a(libunwind.o)
                0x0000000000005014                __restore_core_regs
                0x0000000000005014                restore_core_regs
                0x000000000000502c                __gnu_Unwind_Restore_VFP
                0x0000000000005034                __gnu_Unwind_Save_VFP
                0x000000000000503c                __gnu_Unwind_Restore_VFP_D
                0x0000000000005044                __gnu_Unwind_Save_VFP_D
                0x000000000000504c                __gnu_Unwind_Restore_VFP_D_16_to_31
                0x0000000000005054                __gnu_Unwind_Save_VFP_D_16_to_31
                0x000000000000505c                __gnu_Unwind_Restore_WMMXD
                0x00000000000050a0                __gnu_Unwind_Save_WMMXD
                0x00000000000050e4                __gnu_Unwind_Restore_WMMXC
                0x00000000000050f8                __gnu_Unwind_Save_WMMXC
                0x000000000000510c                ___Unwind_RaiseException
                0x000000000000510c                _Unwind_RaiseException
                0x0000000000005130                _Unwind_Resume
                0x0000000000005130                ___Unwind_Resume
                0x0000000000005154                _Unwind_Resume_or_Rethrow
                0x0000000000005154                ___Unwind_Resume_or_Rethrow
                0x0000000000005178                _Unwind_ForcedUnwind
                0x0000000000005178                ___Unwind_ForcedUnwind
                0x000000000000519c                ___Unwind_Backtrace
                0x000000000000519c                _Unwind_Backtrace
 .text.next_unwind_byte
                0x00000000000051c0       0x38 c:/users/minec/appdata/local/arduino15/packages/n-able-arduino/tools/gcc-arm-none-eabi/10.3.1-2.1/bin/../lib/gcc/arm-none-eabi/10.3.1/thumb/v7e-m/nofp\libgcc.a(pr-support.o)
 .text.__gnu_unwind_execute
                0x00000000000051f8      0x2ac c:/users/minec/appdata/local/arduino15/packages/n-able-arduino/tools/gcc-arm-none-eabi/10.3.1-2.1/bin/../lib/gcc/arm-none-eabi/10.3.1/thumb/v7e-m/nofp\libgcc.a(pr-support.o)
                0x00000000000051f8                __gnu_unwind_execute
 .text          0x00000000000054a4        0x4 c:/users/minec/appdata/local/arduino15/packages/n-able-arduino/tools/gcc-arm-none-eabi/10.3.1-2.1/bin/../lib/gcc/arm-none-eabi/10.3.1/thumb/v7e-m/nofp\libgcc.a(_dvmd_tls.o)
                0x00000000000054a4                __aeabi_idiv0
                0x00000000000054a4                __aeabi_ldiv0
 .text.abort    0x00000000000054a8        0xe c:/users/minec/appdata/local/arduino15/packages/n-able-arduino/tools/gcc-arm-none-eabi/10.3.1-2.1/bin/../lib/gcc/arm-none-eabi/10.3.1/../../../../arm-none-eabi/lib/thumb/v7e-m/nofp\libc_nano.a(lib_a-abort.o)
                0x00000000000054a8                abort
 *fill*         0x00000000000054b6        0x2 
 .text.__cxa_atexit
                0x00000000000054b8       0x1c c:/users/minec/appdata/local/arduino15/packages/n-able-arduino/tools/gcc-arm-none-eabi/10.3.1-2.1/bin/../lib/gcc/arm-none-eabi/10.3.1/../../../../arm-none-eabi/lib/thumb/v7e-m/nofp\libc_nano.a(lib_a-cxa_atexit.o)
                0x00000000000054b8                __cxa_atexit
 .text.exit     0x00000000000054d4       0x28 c:/users/minec/appdata/local/arduino15/packages/n-able-arduino/tools/gcc-arm-none-eabi/10.3.1-2.1/bin/../lib/gcc/arm-none-eabi/10.3.1/../../../../arm-none-eabi/lib/thumb/v7e-m/nofp\libc_nano.a(lib_a-exit.o)
                0x00000000000054d4                exit
 .text.__libc_init_array
                0x00000000000054fc       0x48 c:/users/minec/appdata/local/arduino15/packages/n-able-arduino/tools/gcc-arm-none-eabi/10.3.1-2.1/bin/../lib/gcc/arm-none-eabi/10.3.1/../../../../arm-none-eabi/lib/thumb/v7e-m/nofp\libc_nano.a(lib_a-init.o)
                0x00000000000054fc                __libc_init_array
 .text.memcpy   0x0000000000005544       0x1c c:/users/minec/appdata/local/arduino15/packages/n-able-arduino/tools/gcc-arm-none-eabi/10.3.1-2.1/bin/../lib/gcc/arm-none-eabi/10.3.1/../../../../arm-none-eabi/lib/thumb/v7e-m/nofp\libc_nano.a(lib_a-memcpy-stub.o)
                0x0000000000005544                memcpy
 .text.memset   0x0000000000005560       0x10 c:/users/minec/appdata/local/arduino15/packages/n-able-arduino/tools/gcc-arm-none-eabi/10.3.1-2.1/bin/../lib/gcc/arm-none-eabi/10.3.1/../../../../arm-none-eabi/lib/thumb/v7e-m/nofp\libc_nano.a(lib_a-memset.o)
                0x0000000000005560                memset
 .text._raise_r
                0x0000000000005570       0x50 c:/users/minec/appdata/local/arduino15/packages/n-able-arduino/tools/gcc-arm-none-eabi/10.3.1-2.1/bin/../lib/gcc/arm-none-eabi/10.3.1/../../../../arm-none-eabi/lib/thumb/v7e-m/nofp\libc_nano.a(lib_a-signal.o)
                0x0000000000005570                _raise_r
 .text.raise    0x00000000000055c0       0x10 c:/users/minec/appdata/local/arduino15/packages/n-able-arduino/tools/gcc-arm-none-eabi/10.3.1-2.1/bin/../lib/gcc/arm-none-eabi/10.3.1/../../../../arm-none-eabi/lib/thumb/v7e-m/nofp\libc_nano.a(lib_a-signal.o)
                0x00000000000055c0                raise
 .text._kill_r  0x00000000000055d0       0x24 c:/users/minec/appdata/local/arduino15/packages/n-able-arduino/tools/gcc-arm-none-eabi/10.3.1-2.1/bin/../lib/gcc/arm-none-eabi/10.3.1/../../../../arm-none-eabi/lib/thumb/v7e-m/nofp\libc_nano.a(lib_a-signalr.o)
                0x00000000000055d0                _kill_r
 .text._getpid_r
                0x00000000000055f4        0x4 c:/users/minec/appdata/local/arduino15/packages/n-able-arduino/tools/gcc-arm-none-eabi/10.3.1-2.1/bin/../lib/gcc/arm-none-eabi/10.3.1/../../../../arm-none-eabi/lib/thumb/v7e-m/nofp\libc_nano.a(lib_a-signalr.o)
                0x00000000000055f4                _getpid_r
 .text          0x00000000000055f8       0x10 c:/users/minec/appdata/local/arduino15/packages/n-able-arduino/tools/gcc-arm-none-eabi/10.3.1-2.1/bin/../lib/gcc/arm-none-eabi/10.3.1/../../../../arm-none-eabi/lib/thumb/v7e-m/nofp\libc_nano.a(lib_a-strlen.o)
                0x00000000000055f8                strlen
 .text._getpid  0x0000000000005608       0x10 c:/users/minec/appdata/local/arduino15/packages/n-able-arduino/tools/gcc-arm-none-eabi/10.3.1-2.1/bin/../lib/gcc/arm-none-eabi/10.3.1/../../../../arm-none-eabi/lib/thumb/v7e-m/nofp\libnosys.a(getpid.o)
                0x0000000000005608                _getpid
 .text._kill    0x0000000000005618       0x10 c:/users/minec/appdata/local/arduino15/packages/n-able-arduino/tools/gcc-arm-none-eabi/10.3.1-2.1/bin/../lib/gcc/arm-none-eabi/10.3.1/../../../../arm-none-eabi/lib/thumb/v7e-m/nofp\libnosys.a(kill.o)
                0x0000000000005618                _kill
 .text._exit    0x0000000000005628        0x4 c:/users/minec/appdata/local/arduino15/packages/n-able-arduino/tools/gcc-arm-none-eabi/10.3.1-2.1/bin/../lib/gcc/arm-none-eabi/10.3.1/../../../../arm-none-eabi/lib/thumb/v7e-m/nofp\libnosys.a(_exit.o)
                0x0000000000005628                _exit
 *(.init)
 .init          0x000000000000562c        0x4 c:/users/minec/appdata/local/arduino15/packages/n-able-arduino/tools/gcc-arm-none-eabi/10.3.1-2.1/bin/../lib/gcc/arm-none-eabi/10.3.1/thumb/v7e-m/nofp/crti.o
                0x000000000000562c                _init
 .init          0x0000000000005630        0x8 c:/users/minec/appdata/local/arduino15/packages/n-able-arduino/tools/gcc-arm-none-eabi/10.3.1-2.1/bin/../lib/gcc/arm-none-eabi/10.3.1/thumb/v7e-m/nofp/crtn.o
 *(.fini)
 .fini          0x0000000000005638        0x4 c:/users/minec/appdata/local/arduino15/packages/n-able-arduino/tools/gcc-arm-none-eabi/10.3.1-2.1/bin/../lib/gcc/arm-none-eabi/10.3.1/thumb/v7e-m/nofp/crti.o
                0x0000000000005638                _fini
 .fini          0x000000000000563c        0x8 c:/users/minec/appdata/local/arduino15/packages/n-able-arduino/tools/gcc-arm-none-eabi/10.3.1-2.1/bin/../lib/gcc/arm-none-eabi/10.3.1/thumb/v7e-m/nofp/crtn.o
 *crtbegin.o(.ctors)
 *crtbegin?.o(.ctors)
 *(EXCLUDE_FILE(*crtend.o *crtend?.o) .ctors)
 *(SORT_BY_NAME(.ctors.*))
 *(.ctors)
 *crtbegin.o(.dtors)
 *crtbegin?.o(.dtors)
 *(EXCLUDE_FILE(*crtend.o *crtend?.o) .dtors)
 *(SORT_BY_NAME(.dtors.*))
 *(.dtors)
 *(.rodata*)
 .rodata.g_ADigitalPinMap
                0x0000000000005644       0x80 C:\Users\minec\AppData\Local\arduino\sketches\CBAA8D2BDA3D583126B4F168E555FB8A\core\variant.cpp.o
                0x0000000000005644                g_ADigitalPinMap
 .rodata.vTaskStartScheduler.str1.1
                0x00000000000056c4        0x5 C:\Users\minec\AppData\Local\arduino\sketches\CBAA8D2BDA3D583126B4F168E555FB8A/..\..\cores\69cc2d20a9c0859fc6838a3a84e0426a\core.a(tasks.c.o)
 .rodata.xTimerCreateTimerTask.str1.1
                0x00000000000056c9        0x8 C:\Users\minec\AppData\Local\arduino\sketches\CBAA8D2BDA3D583126B4F168E555FB8A/..\..\cores\69cc2d20a9c0859fc6838a3a84e0426a\core.a(timers.c.o)
 .rodata.main.str1.1
                0x00000000000056d1        0x4 C:\Users\minec\AppData\Local\arduino\sketches\CBAA8D2BDA3D583126B4F168E555FB8A/..\..\cores\69cc2d20a9c0859fc6838a3a84e0426a\core.a(main.cpp.o)
 .rodata.vApplicationStackOverflowHook.str1.1
                0x00000000000056d5       0x1a C:\Users\minec\AppData\Local\arduino\sketches\CBAA8D2BDA3D583126B4F168E555FB8A/..\..\cores\69cc2d20a9c0859fc6838a3a84e0426a\core.a(rtos.cpp.o)
 .rodata.vApplicationMallocFailedHook.str1.1
                0x00000000000056ef       0x23 C:\Users\minec\AppData\Local\arduino\sketches\CBAA8D2BDA3D583126B4F168E555FB8A/..\..\cores\69cc2d20a9c0859fc6838a3a84e0426a\core.a(rtos.cpp.o)
 .rodata._Z15dump_call_stackv.str1.1
                0x0000000000005712       0x80 C:\Users\minec\AppData\Local\arduino\sketches\CBAA8D2BDA3D583126B4F168E555FB8A/..\..\cores\69cc2d20a9c0859fc6838a3a84e0426a\core.a(debug_utils.cpp.o)
 .rodata.Hardfault_handler_cpp.str1.1
                0x0000000000005792      0x3cf C:\Users\minec\AppData\Local\arduino\sketches\CBAA8D2BDA3D583126B4F168E555FB8A/..\..\cores\69cc2d20a9c0859fc6838a3a84e0426a\core.a(debug_utils.cpp.o)
 .rodata._ZN5Print7printlnEv.str1.1
                0x0000000000005b61        0x3 C:\Users\minec\AppData\Local\arduino\sketches\CBAA8D2BDA3D583126B4F168E555FB8A/..\..\cores\69cc2d20a9c0859fc6838a3a84e0426a\core.a(Print.cpp.o)
 .rodata._ZTV4Uart
                0x0000000000005b64       0x3c C:\Users\minec\AppData\Local\arduino\sketches\CBAA8D2BDA3D583126B4F168E555FB8A/..\..\cores\69cc2d20a9c0859fc6838a3a84e0426a\core.a(Uart.cpp.o)
                0x0000000000005b64                vtable for Uart
 .rodata.sprint_floating_point.str1.1
                0x0000000000005ba0       0x12 C:\Users\minec\AppData\Local\arduino\sketches\CBAA8D2BDA3D583126B4F168E555FB8A/..\..\cores\69cc2d20a9c0859fc6838a3a84e0426a\core.a(printf.c.o)
 .rodata._vsnprintf.str1.1
                0x0000000000005bb2        0xd C:\Users\minec\AppData\Local\arduino\sketches\CBAA8D2BDA3D583126B4F168E555FB8A/..\..\cores\69cc2d20a9c0859fc6838a3a84e0426a\core.a(printf.c.o)
 *fill*         0x0000000000005bbf        0x1 
 .rodata.powers_of_10
                0x0000000000005bc0       0x90 C:\Users\minec\AppData\Local\arduino\sketches\CBAA8D2BDA3D583126B4F168E555FB8A/..\..\cores\69cc2d20a9c0859fc6838a3a84e0426a\core.a(printf.c.o)
 .rodata._global_impure_ptr
                0x0000000000005c50        0x4 c:/users/minec/appdata/local/arduino15/packages/n-able-arduino/tools/gcc-arm-none-eabi/10.3.1-2.1/bin/../lib/gcc/arm-none-eabi/10.3.1/../../../../arm-none-eabi/lib/thumb/v7e-m/nofp\libc_nano.a(lib_a-impure.o)
                0x0000000000005c50                _global_impure_ptr
 *(.eh_frame*)
 .eh_frame      0x0000000000005c54        0x0 c:/users/minec/appdata/local/arduino15/packages/n-able-arduino/tools/gcc-arm-none-eabi/10.3.1-2.1/bin/../lib/gcc/arm-none-eabi/10.3.1/thumb/v7e-m/nofp/crtbegin.o
 .eh_frame      0x0000000000005c54        0x4 c:/users/minec/appdata/local/arduino15/packages/n-able-arduino/tools/gcc-arm-none-eabi/10.3.1-2.1/bin/../lib/gcc/arm-none-eabi/10.3.1/thumb/v7e-m/nofp/crtend.o

.glue_7         0x0000000000005c58        0x0
 .glue_7        0x0000000000005c58        0x0 linker stubs

.glue_7t        0x0000000000005c58        0x0
 .glue_7t       0x0000000000005c58        0x0 linker stubs

.vfp11_veneer   0x0000000000005c58        0x0
 .vfp11_veneer  0x0000000000005c58        0x0 linker stubs

.v4_bx          0x0000000000005c58        0x0
 .v4_bx         0x0000000000005c58        0x0 linker stubs

.iplt           0x0000000000005c58        0x0
 .iplt          0x0000000000005c58        0x0 c:/users/minec/appdata/local/arduino15/packages/n-able-arduino/tools/gcc-arm-none-eabi/10.3.1-2.1/bin/../lib/gcc/arm-none-eabi/10.3.1/thumb/v7e-m/nofp/crtbegin.o

.ARM.extab
 *(.ARM.extab* .gnu.linkonce.armextab.*)
                0x0000000000005c58                __exidx_start = .

.ARM.exidx      0x0000000000005c58       0x98
 *(.ARM.exidx* .gnu.linkonce.armexidx.*)
 .ARM.exidx     0x0000000000005c58        0x8 c:/users/minec/appdata/local/arduino15/packages/n-able-arduino/tools/gcc-arm-none-eabi/10.3.1-2.1/bin/../lib/gcc/arm-none-eabi/10.3.1/../../../../arm-none-eabi/lib/thumb/v7e-m/nofp/crt0.o
                                         0x10 (size before relaxing)
 .ARM.exidx.text.__fixdfdi
                0x0000000000005c60        0x8 c:/users/minec/appdata/local/arduino15/packages/n-able-arduino/tools/gcc-arm-none-eabi/10.3.1-2.1/bin/../lib/gcc/arm-none-eabi/10.3.1/thumb/v7e-m/nofp\libgcc.a(_fixdfdi.o)
 .ARM.exidx.text.__fixunsdfdi
                0x0000000000005c68        0x8 c:/users/minec/appdata/local/arduino15/packages/n-able-arduino/tools/gcc-arm-none-eabi/10.3.1-2.1/bin/../lib/gcc/arm-none-eabi/10.3.1/thumb/v7e-m/nofp\libgcc.a(_fixunsdfdi.o)
 .ARM.exidx.text.__udivmoddi4
                0x0000000000005c70        0x0 c:/users/minec/appdata/local/arduino15/packages/n-able-arduino/tools/gcc-arm-none-eabi/10.3.1-2.1/bin/../lib/gcc/arm-none-eabi/10.3.1/thumb/v7e-m/nofp\libgcc.a(_udivmoddi4.o)
                                          0x8 (size before relaxing)
 .ARM.exidx.text.selfrel_offset31
                0x0000000000005c70        0x0 c:/users/minec/appdata/local/arduino15/packages/n-able-arduino/tools/gcc-arm-none-eabi/10.3.1-2.1/bin/../lib/gcc/arm-none-eabi/10.3.1/thumb/v7e-m/nofp\libgcc.a(unwind-arm.o)
                                          0x8 (size before relaxing)
 .ARM.exidx.text.search_EIT_table
                0x0000000000005c70        0x0 c:/users/minec/appdata/local/arduino15/packages/n-able-arduino/tools/gcc-arm-none-eabi/10.3.1-2.1/bin/../lib/gcc/arm-none-eabi/10.3.1/thumb/v7e-m/nofp\libgcc.a(unwind-arm.o)
                                          0x8 (size before relaxing)
 .ARM.exidx.text.__gnu_unwind_get_pr_addr
                0x0000000000005c70        0x0 c:/users/minec/appdata/local/arduino15/packages/n-able-arduino/tools/gcc-arm-none-eabi/10.3.1-2.1/bin/../lib/gcc/arm-none-eabi/10.3.1/thumb/v7e-m/nofp\libgcc.a(unwind-arm.o)
                                          0x8 (size before relaxing)
 .ARM.exidx.text.get_eit_entry
                0x0000000000005c70        0x8 c:/users/minec/appdata/local/arduino15/packages/n-able-arduino/tools/gcc-arm-none-eabi/10.3.1-2.1/bin/../lib/gcc/arm-none-eabi/10.3.1/thumb/v7e-m/nofp\libgcc.a(unwind-arm.o)
 .ARM.exidx.text.restore_non_core_regs
                0x0000000000005c78        0x8 c:/users/minec/appdata/local/arduino15/packages/n-able-arduino/tools/gcc-arm-none-eabi/10.3.1-2.1/bin/../lib/gcc/arm-none-eabi/10.3.1/thumb/v7e-m/nofp\libgcc.a(unwind-arm.o)
 .ARM.exidx.text._Unwind_decode_typeinfo_ptr.constprop.0
                0x0000000000005c80        0x8 c:/users/minec/appdata/local/arduino15/packages/n-able-arduino/tools/gcc-arm-none-eabi/10.3.1-2.1/bin/../lib/gcc/arm-none-eabi/10.3.1/thumb/v7e-m/nofp\libgcc.a(unwind-arm.o)
 .ARM.exidx.text._Unwind_DebugHook
                0x0000000000005c88        0x0 c:/users/minec/appdata/local/arduino15/packages/n-able-arduino/tools/gcc-arm-none-eabi/10.3.1-2.1/bin/../lib/gcc/arm-none-eabi/10.3.1/thumb/v7e-m/nofp\libgcc.a(unwind-arm.o)
                                          0x8 (size before relaxing)
 .ARM.exidx.text.unwind_phase2
                0x0000000000005c88        0x8 c:/users/minec/appdata/local/arduino15/packages/n-able-arduino/tools/gcc-arm-none-eabi/10.3.1-2.1/bin/../lib/gcc/arm-none-eabi/10.3.1/thumb/v7e-m/nofp\libgcc.a(unwind-arm.o)
 .ARM.exidx.text.unwind_phase2_forced
                0x0000000000005c90        0x8 c:/users/minec/appdata/local/arduino15/packages/n-able-arduino/tools/gcc-arm-none-eabi/10.3.1-2.1/bin/../lib/gcc/arm-none-eabi/10.3.1/thumb/v7e-m/nofp\libgcc.a(unwind-arm.o)
 .ARM.exidx.text.__gnu_Unwind_RaiseException
                0x0000000000005c98        0x8 c:/users/minec/appdata/local/arduino15/packages/n-able-arduino/tools/gcc-arm-none-eabi/10.3.1-2.1/bin/../lib/gcc/arm-none-eabi/10.3.1/thumb/v7e-m/nofp\libgcc.a(unwind-arm.o)
 .ARM.exidx.text.__gnu_Unwind_ForcedUnwind
                0x0000000000005ca0        0x8 c:/users/minec/appdata/local/arduino15/packages/n-able-arduino/tools/gcc-arm-none-eabi/10.3.1-2.1/bin/../lib/gcc/arm-none-eabi/10.3.1/thumb/v7e-m/nofp\libgcc.a(unwind-arm.o)
 .ARM.exidx.text.__gnu_Unwind_Resume
                0x0000000000005ca8        0x8 c:/users/minec/appdata/local/arduino15/packages/n-able-arduino/tools/gcc-arm-none-eabi/10.3.1-2.1/bin/../lib/gcc/arm-none-eabi/10.3.1/thumb/v7e-m/nofp\libgcc.a(unwind-arm.o)
 .ARM.exidx.text.__gnu_Unwind_Resume_or_Rethrow
                0x0000000000005cb0        0x8 c:/users/minec/appdata/local/arduino15/packages/n-able-arduino/tools/gcc-arm-none-eabi/10.3.1-2.1/bin/../lib/gcc/arm-none-eabi/10.3.1/thumb/v7e-m/nofp\libgcc.a(unwind-arm.o)
 .ARM.exidx.text._Unwind_VRS_Get
                0x0000000000005cb8        0x0 c:/users/minec/appdata/local/arduino15/packages/n-able-arduino/tools/gcc-arm-none-eabi/10.3.1-2.1/bin/../lib/gcc/arm-none-eabi/10.3.1/thumb/v7e-m/nofp\libgcc.a(unwind-arm.o)
                                          0x8 (size before relaxing)
 .ARM.exidx.text._Unwind_GetGR
                0x0000000000005cb8        0x0 c:/users/minec/appdata/local/arduino15/packages/n-able-arduino/tools/gcc-arm-none-eabi/10.3.1-2.1/bin/../lib/gcc/arm-none-eabi/10.3.1/thumb/v7e-m/nofp\libgcc.a(unwind-arm.o)
                                          0x8 (size before relaxing)
 .ARM.exidx.text._Unwind_VRS_Set
                0x0000000000005cb8        0x0 c:/users/minec/appdata/local/arduino15/packages/n-able-arduino/tools/gcc-arm-none-eabi/10.3.1-2.1/bin/../lib/gcc/arm-none-eabi/10.3.1/thumb/v7e-m/nofp\libgcc.a(unwind-arm.o)
                                          0x8 (size before relaxing)
 .ARM.exidx.text._Unwind_SetGR
                0x0000000000005cb8        0x0 c:/users/minec/appdata/local/arduino15/packages/n-able-arduino/tools/gcc-arm-none-eabi/10.3.1-2.1/bin/../lib/gcc/arm-none-eabi/10.3.1/thumb/v7e-m/nofp\libgcc.a(unwind-arm.o)
                                          0x8 (size before relaxing)
 .ARM.exidx.text.__gnu_Unwind_Backtrace
                0x0000000000005cb8        0x8 c:/users/minec/appdata/local/arduino15/packages/n-able-arduino/tools/gcc-arm-none-eabi/10.3.1-2.1/bin/../lib/gcc/arm-none-eabi/10.3.1/thumb/v7e-m/nofp\libgcc.a(unwind-arm.o)
 .ARM.exidx.text.__gnu_unwind_pr_common
                0x0000000000005cc0        0x8 c:/users/minec/appdata/local/arduino15/packages/n-able-arduino/tools/gcc-arm-none-eabi/10.3.1-2.1/bin/../lib/gcc/arm-none-eabi/10.3.1/thumb/v7e-m/nofp\libgcc.a(unwind-arm.o)
 .ARM.exidx.text.__aeabi_unwind_cpp_pr0
                0x0000000000005cc8        0x8 c:/users/minec/appdata/local/arduino15/packages/n-able-arduino/tools/gcc-arm-none-eabi/10.3.1-2.1/bin/../lib/gcc/arm-none-eabi/10.3.1/thumb/v7e-m/nofp\libgcc.a(unwind-arm.o)
 .ARM.exidx.text.__aeabi_unwind_cpp_pr1
                0x0000000000005cd0        0x0 c:/users/minec/appdata/local/arduino15/packages/n-able-arduino/tools/gcc-arm-none-eabi/10.3.1-2.1/bin/../lib/gcc/arm-none-eabi/10.3.1/thumb/v7e-m/nofp\libgcc.a(unwind-arm.o)
                                          0x8 (size before relaxing)
 .ARM.exidx.text.__aeabi_unwind_cpp_pr2
                0x0000000000005cd0        0x0 c:/users/minec/appdata/local/arduino15/packages/n-able-arduino/tools/gcc-arm-none-eabi/10.3.1-2.1/bin/../lib/gcc/arm-none-eabi/10.3.1/thumb/v7e-m/nofp\libgcc.a(unwind-arm.o)
                                          0x8 (size before relaxing)
 .ARM.exidx.text._Unwind_VRS_Pop
                0x0000000000005cd0       0x10 c:/users/minec/appdata/local/arduino15/packages/n-able-arduino/tools/gcc-arm-none-eabi/10.3.1-2.1/bin/../lib/gcc/arm-none-eabi/10.3.1/thumb/v7e-m/nofp\libgcc.a(unwind-arm.o)
                                          0x8 (size before relaxing)
 .ARM.exidx.text.next_unwind_byte
                0x0000000000005ce0        0x0 c:/users/minec/appdata/local/arduino15/packages/n-able-arduino/tools/gcc-arm-none-eabi/10.3.1-2.1/bin/../lib/gcc/arm-none-eabi/10.3.1/thumb/v7e-m/nofp\libgcc.a(pr-support.o)
                                          0x8 (size before relaxing)
 .ARM.exidx.text.__gnu_unwind_execute
                0x0000000000005ce0       0x10 c:/users/minec/appdata/local/arduino15/packages/n-able-arduino/tools/gcc-arm-none-eabi/10.3.1-2.1/bin/../lib/gcc/arm-none-eabi/10.3.1/thumb/v7e-m/nofp\libgcc.a(pr-support.o)
                                          0x8 (size before relaxing)
 .ARM.exidx.text._getpid
                0x0000000000005cf0        0x0 c:/users/minec/appdata/local/arduino15/packages/n-able-arduino/tools/gcc-arm-none-eabi/10.3.1-2.1/bin/../lib/gcc/arm-none-eabi/10.3.1/../../../../arm-none-eabi/lib/thumb/v7e-m/nofp\libnosys.a(getpid.o)
                                          0x8 (size before relaxing)
 .ARM.exidx.text._kill
                0x0000000000005cf0        0x0 c:/users/minec/appdata/local/arduino15/packages/n-able-arduino/tools/gcc-arm-none-eabi/10.3.1-2.1/bin/../lib/gcc/arm-none-eabi/10.3.1/../../../../arm-none-eabi/lib/thumb/v7e-m/nofp\libnosys.a(kill.o)
                                          0x8 (size before relaxing)
 .ARM.exidx.text._exit
                0x0000000000005cf0        0x0 c:/users/minec/appdata/local/arduino15/packages/n-able-arduino/tools/gcc-arm-none-eabi/10.3.1-2.1/bin/../lib/gcc/arm-none-eabi/10.3.1/../../../../arm-none-eabi/lib/thumb/v7e-m/nofp\libnosys.a(_exit.o)
                                          0x8 (size before relaxing)
                0x0000000000005cf0                __exidx_end = .

.rel.dyn        0x0000000000005cf0        0x0
 .rel.iplt      0x0000000000005cf0        0x0 c:/users/minec/appdata/local/arduino15/packages/n-able-arduino/tools/gcc-arm-none-eabi/10.3.1-2.1/bin/../lib/gcc/arm-none-eabi/10.3.1/thumb/v7e-m/nofp/crtbegin.o
                0x0000000000005cf0                . = ALIGN (0x4)
                0x0000000000005cf0                __etext = .

.data           0x0000000020000000       0x80 load address 0x0000000000005cf0
                0x0000000020000000                __data_start__ = .
 *(vtable)
 *(.data*)
 .data.__dso_handle
                0x0000000020000000        0x4 c:/users/minec/appdata/local/arduino15/packages/n-able-arduino/tools/gcc-arm-none-eabi/10.3.1-2.1/bin/../lib/gcc/arm-none-eabi/10.3.1/thumb/v7e-m/nofp/crtbegin.o
                0x0000000020000000                __dso_handle
 .data.uxTopUsedPriority
                0x0000000020000004        0x4 C:\Users\minec\AppData\Local\arduino\sketches\CBAA8D2BDA3D583126B4F168E555FB8A/..\..\cores\69cc2d20a9c0859fc6838a3a84e0426a\core.a(tasks.c.o)
                0x0000000020000004                uxTopUsedPriority
 .data.SystemCoreClock
                0x0000000020000008        0x4 C:\Users\minec\AppData\Local\arduino\sketches\CBAA8D2BDA3D583126B4F168E555FB8A/..\..\cores\69cc2d20a9c0859fc6838a3a84e0426a\core.a(system_nrf52810.c.o)
                0x0000000020000008                SystemCoreClock
 .data._impure_ptr
                0x000000002000000c        0x4 c:/users/minec/appdata/local/arduino15/packages/n-able-arduino/tools/gcc-arm-none-eabi/10.3.1-2.1/bin/../lib/gcc/arm-none-eabi/10.3.1/../../../../arm-none-eabi/lib/thumb/v7e-m/nofp\libc_nano.a(lib_a-impure.o)
                0x000000002000000c                _impure_ptr
 .data.impure_data
                0x0000000020000010       0x60 c:/users/minec/appdata/local/arduino15/packages/n-able-arduino/tools/gcc-arm-none-eabi/10.3.1-2.1/bin/../lib/gcc/arm-none-eabi/10.3.1/../../../../arm-none-eabi/lib/thumb/v7e-m/nofp\libc_nano.a(lib_a-impure.o)
                0x0000000020000070                . = ALIGN (0x4)
                0x0000000020000070                PROVIDE (__preinit_array_start = .)
 *(.preinit_array)
                0x0000000020000070                PROVIDE (__preinit_array_end = .)
                0x0000000020000070                . = ALIGN (0x4)
                0x0000000020000070                PROVIDE (__init_array_start = .)
 *(SORT_BY_NAME(.init_array.*))
 *(.init_array)
 .init_array    0x0000000020000070        0x4 c:/users/minec/appdata/local/arduino15/packages/n-able-arduino/tools/gcc-arm-none-eabi/10.3.1-2.1/bin/../lib/gcc/arm-none-eabi/10.3.1/thumb/v7e-m/nofp/crtbegin.o
 .init_array    0x0000000020000074        0x4 C:\Users\minec\AppData\Local\arduino\sketches\CBAA8D2BDA3D583126B4F168E555FB8A/..\..\cores\69cc2d20a9c0859fc6838a3a84e0426a\core.a(rtos.cpp.o)
 .init_array    0x0000000020000078        0x4 C:\Users\minec\AppData\Local\arduino\sketches\CBAA8D2BDA3D583126B4F168E555FB8A/..\..\cores\69cc2d20a9c0859fc6838a3a84e0426a\core.a(Uart.cpp.o)
                0x000000002000007c                PROVIDE (__init_array_end = .)
                0x000000002000007c                . = ALIGN (0x4)
                [!provide]                        PROVIDE (__fini_array_start = .)
 *(SORT_BY_NAME(.fini_array.*))
 *(.fini_array)
 .fini_array    0x000000002000007c        0x4 c:/users/minec/appdata/local/arduino15/packages/n-able-arduino/tools/gcc-arm-none-eabi/10.3.1-2.1/bin/../lib/gcc/arm-none-eabi/10.3.1/thumb/v7e-m/nofp/crtbegin.o
                [!provide]                        PROVIDE (__fini_array_end = .)
 *(.jcr*)
                0x0000000020000080                . = ALIGN (0x4)
                0x0000000020000080                __data_end__ = .

.igot.plt       0x0000000020000080        0x0 load address 0x0000000000005d70
 .igot.plt      0x0000000020000080        0x0 c:/users/minec/appdata/local/arduino15/packages/n-able-arduino/tools/gcc-arm-none-eabi/10.3.1-2.1/bin/../lib/gcc/arm-none-eabi/10.3.1/thumb/v7e-m/nofp/crtbegin.o

.bss            0x0000000020000080     0x1320 load address 0x0000000000005d70
                0x0000000020000080                . = ALIGN (0x4)
                0x0000000020000080                __bss_start__ = .
 *(.bss*)
 .bss.completed.1
                0x0000000020000080        0x1 c:/users/minec/appdata/local/arduino15/packages/n-able-arduino/tools/gcc-arm-none-eabi/10.3.1-2.1/bin/../lib/gcc/arm-none-eabi/10.3.1/thumb/v7e-m/nofp/crtbegin.o
 *fill*         0x0000000020000081        0x3 
 .bss.object.0  0x0000000020000084       0x18 c:/users/minec/appdata/local/arduino15/packages/n-able-arduino/tools/gcc-arm-none-eabi/10.3.1-2.1/bin/../lib/gcc/arm-none-eabi/10.3.1/thumb/v7e-m/nofp/crtbegin.o
 .bss.pxCurrentTCB
                0x000000002000009c        0x4 C:\Users\minec\AppData\Local\arduino\sketches\CBAA8D2BDA3D583126B4F168E555FB8A/..\..\cores\69cc2d20a9c0859fc6838a3a84e0426a\core.a(tasks.c.o)
                0x000000002000009c                pxCurrentTCB
 .bss.pxDelayedTaskList
                0x00000000200000a0        0x4 C:\Users\minec\AppData\Local\arduino\sketches\CBAA8D2BDA3D583126B4F168E555FB8A/..\..\cores\69cc2d20a9c0859fc6838a3a84e0426a\core.a(tasks.c.o)
 .bss.pxOverflowDelayedTaskList
                0x00000000200000a4        0x4 C:\Users\minec\AppData\Local\arduino\sketches\CBAA8D2BDA3D583126B4F168E555FB8A/..\..\cores\69cc2d20a9c0859fc6838a3a84e0426a\core.a(tasks.c.o)
 .bss.pxReadyTasksLists
                0x00000000200000a8       0x64 C:\Users\minec\AppData\Local\arduino\sketches\CBAA8D2BDA3D583126B4F168E555FB8A/..\..\cores\69cc2d20a9c0859fc6838a3a84e0426a\core.a(tasks.c.o)
 .bss.uxCurrentNumberOfTasks
                0x000000002000010c        0x4 C:\Users\minec\AppData\Local\arduino\sketches\CBAA8D2BDA3D583126B4F168E555FB8A/..\..\cores\69cc2d20a9c0859fc6838a3a84e0426a\core.a(tasks.c.o)
 .bss.uxDeletedTasksWaitingCleanUp
                0x0000000020000110        0x4 C:\Users\minec\AppData\Local\arduino\sketches\CBAA8D2BDA3D583126B4F168E555FB8A/..\..\cores\69cc2d20a9c0859fc6838a3a84e0426a\core.a(tasks.c.o)
 .bss.uxSchedulerSuspended
                0x0000000020000114        0x4 C:\Users\minec\AppData\Local\arduino\sketches\CBAA8D2BDA3D583126B4F168E555FB8A/..\..\cores\69cc2d20a9c0859fc6838a3a84e0426a\core.a(tasks.c.o)
 .bss.uxTaskNumber
                0x0000000020000118        0x4 C:\Users\minec\AppData\Local\arduino\sketches\CBAA8D2BDA3D583126B4F168E555FB8A/..\..\cores\69cc2d20a9c0859fc6838a3a84e0426a\core.a(tasks.c.o)
 .bss.uxTopReadyPriority
                0x000000002000011c        0x4 C:\Users\minec\AppData\Local\arduino\sketches\CBAA8D2BDA3D583126B4F168E555FB8A/..\..\cores\69cc2d20a9c0859fc6838a3a84e0426a\core.a(tasks.c.o)
 .bss.xDelayedTaskList1
                0x0000000020000120       0x14 C:\Users\minec\AppData\Local\arduino\sketches\CBAA8D2BDA3D583126B4F168E555FB8A/..\..\cores\69cc2d20a9c0859fc6838a3a84e0426a\core.a(tasks.c.o)
 .bss.xDelayedTaskList2
                0x0000000020000134       0x14 C:\Users\minec\AppData\Local\arduino\sketches\CBAA8D2BDA3D583126B4F168E555FB8A/..\..\cores\69cc2d20a9c0859fc6838a3a84e0426a\core.a(tasks.c.o)
 .bss.xIdleTaskHandle
                0x0000000020000148        0x4 C:\Users\minec\AppData\Local\arduino\sketches\CBAA8D2BDA3D583126B4F168E555FB8A/..\..\cores\69cc2d20a9c0859fc6838a3a84e0426a\core.a(tasks.c.o)
 .bss.xNextTaskUnblockTime
                0x000000002000014c        0x4 C:\Users\minec\AppData\Local\arduino\sketches\CBAA8D2BDA3D583126B4F168E555FB8A/..\..\cores\69cc2d20a9c0859fc6838a3a84e0426a\core.a(tasks.c.o)
 .bss.xNumOfOverflows
                0x0000000020000150        0x4 C:\Users\minec\AppData\Local\arduino\sketches\CBAA8D2BDA3D583126B4F168E555FB8A/..\..\cores\69cc2d20a9c0859fc6838a3a84e0426a\core.a(tasks.c.o)
 .bss.xPendedTicks
                0x0000000020000154        0x4 C:\Users\minec\AppData\Local\arduino\sketches\CBAA8D2BDA3D583126B4F168E555FB8A/..\..\cores\69cc2d20a9c0859fc6838a3a84e0426a\core.a(tasks.c.o)
 .bss.xPendingReadyList
                0x0000000020000158       0x14 C:\Users\minec\AppData\Local\arduino\sketches\CBAA8D2BDA3D583126B4F168E555FB8A/..\..\cores\69cc2d20a9c0859fc6838a3a84e0426a\core.a(tasks.c.o)
 .bss.xSchedulerRunning
                0x000000002000016c        0x4 C:\Users\minec\AppData\Local\arduino\sketches\CBAA8D2BDA3D583126B4F168E555FB8A/..\..\cores\69cc2d20a9c0859fc6838a3a84e0426a\core.a(tasks.c.o)
 .bss.xSuspendedTaskList
                0x0000000020000170       0x14 C:\Users\minec\AppData\Local\arduino\sketches\CBAA8D2BDA3D583126B4F168E555FB8A/..\..\cores\69cc2d20a9c0859fc6838a3a84e0426a\core.a(tasks.c.o)
 .bss.xTasksWaitingTermination
                0x0000000020000184       0x14 C:\Users\minec\AppData\Local\arduino\sketches\CBAA8D2BDA3D583126B4F168E555FB8A/..\..\cores\69cc2d20a9c0859fc6838a3a84e0426a\core.a(tasks.c.o)
 .bss.xTickCount
                0x0000000020000198        0x4 C:\Users\minec\AppData\Local\arduino\sketches\CBAA8D2BDA3D583126B4F168E555FB8A/..\..\cores\69cc2d20a9c0859fc6838a3a84e0426a\core.a(tasks.c.o)
 .bss.xYieldPending
                0x000000002000019c        0x4 C:\Users\minec\AppData\Local\arduino\sketches\CBAA8D2BDA3D583126B4F168E555FB8A/..\..\cores\69cc2d20a9c0859fc6838a3a84e0426a\core.a(tasks.c.o)
 .bss.pxCurrentTimerList
                0x00000000200001a0        0x4 C:\Users\minec\AppData\Local\arduino\sketches\CBAA8D2BDA3D583126B4F168E555FB8A/..\..\cores\69cc2d20a9c0859fc6838a3a84e0426a\core.a(timers.c.o)
 .bss.pxOverflowTimerList
                0x00000000200001a4        0x4 C:\Users\minec\AppData\Local\arduino\sketches\CBAA8D2BDA3D583126B4F168E555FB8A/..\..\cores\69cc2d20a9c0859fc6838a3a84e0426a\core.a(timers.c.o)
 .bss.ucStaticTimerQueueStorage.1
                0x00000000200001a8      0x200 C:\Users\minec\AppData\Local\arduino\sketches\CBAA8D2BDA3D583126B4F168E555FB8A/..\..\cores\69cc2d20a9c0859fc6838a3a84e0426a\core.a(timers.c.o)
 .bss.xActiveTimerList1
                0x00000000200003a8       0x14 C:\Users\minec\AppData\Local\arduino\sketches\CBAA8D2BDA3D583126B4F168E555FB8A/..\..\cores\69cc2d20a9c0859fc6838a3a84e0426a\core.a(timers.c.o)
 .bss.xActiveTimerList2
                0x00000000200003bc       0x14 C:\Users\minec\AppData\Local\arduino\sketches\CBAA8D2BDA3D583126B4F168E555FB8A/..\..\cores\69cc2d20a9c0859fc6838a3a84e0426a\core.a(timers.c.o)
 .bss.xLastTime.2
                0x00000000200003d0        0x4 C:\Users\minec\AppData\Local\arduino\sketches\CBAA8D2BDA3D583126B4F168E555FB8A/..\..\cores\69cc2d20a9c0859fc6838a3a84e0426a\core.a(timers.c.o)
 .bss.xStaticTimerQueue.0
                0x00000000200003d4       0x48 C:\Users\minec\AppData\Local\arduino\sketches\CBAA8D2BDA3D583126B4F168E555FB8A/..\..\cores\69cc2d20a9c0859fc6838a3a84e0426a\core.a(timers.c.o)
 .bss.xTimerQueue
                0x000000002000041c        0x4 C:\Users\minec\AppData\Local\arduino\sketches\CBAA8D2BDA3D583126B4F168E555FB8A/..\..\cores\69cc2d20a9c0859fc6838a3a84e0426a\core.a(timers.c.o)
 .bss.xTimerTaskHandle
                0x0000000020000420        0x4 C:\Users\minec\AppData\Local\arduino\sketches\CBAA8D2BDA3D583126B4F168E555FB8A/..\..\cores\69cc2d20a9c0859fc6838a3a84e0426a\core.a(timers.c.o)
 .bss._ZL10_mainStack
                0x0000000020000424      0x800 C:\Users\minec\AppData\Local\arduino\sketches\CBAA8D2BDA3D583126B4F168E555FB8A/..\..\cores\69cc2d20a9c0859fc6838a3a84e0426a\core.a(main.cpp.o)
 .bss._ZL15_loopTaskHandle
                0x0000000020000c24        0x4 C:\Users\minec\AppData\Local\arduino\sketches\CBAA8D2BDA3D583126B4F168E555FB8A/..\..\cores\69cc2d20a9c0859fc6838a3a84e0426a\core.a(main.cpp.o)
 .bss._ZL15_mainTaskBuffer
                0x0000000020000c28       0x50 C:\Users\minec\AppData\Local\arduino\sketches\CBAA8D2BDA3D583126B4F168E555FB8A/..\..\cores\69cc2d20a9c0859fc6838a3a84e0426a\core.a(main.cpp.o)
 .bss.RTOS      0x0000000020000c78        0x1 C:\Users\minec\AppData\Local\arduino\sketches\CBAA8D2BDA3D583126B4F168E555FB8A/..\..\cores\69cc2d20a9c0859fc6838a3a84e0426a\core.a(rtos.cpp.o)
                0x0000000020000c78                RTOS
 *fill*         0x0000000020000c79        0x3 
 .bss._resetReason
                0x0000000020000c7c        0x4 C:\Users\minec\AppData\Local\arduino\sketches\CBAA8D2BDA3D583126B4F168E555FB8A/..\..\cores\69cc2d20a9c0859fc6838a3a84e0426a\core.a(wiring.c.o)
 .bss.Serial    0x0000000020000c80       0x64 C:\Users\minec\AppData\Local\arduino\sketches\CBAA8D2BDA3D583126B4F168E555FB8A/..\..\cores\69cc2d20a9c0859fc6838a3a84e0426a\core.a(Uart.cpp.o)
                0x0000000020000c80                Serial
 .bss.pxEnd     0x0000000020000ce4        0x4 C:\Users\minec\AppData\Local\arduino\sketches\CBAA8D2BDA3D583126B4F168E555FB8A/..\..\cores\69cc2d20a9c0859fc6838a3a84e0426a\core.a(heap_4.c.o)
 .bss.xBlockAllocatedBit
                0x0000000020000ce8        0x4 C:\Users\minec\AppData\Local\arduino\sketches\CBAA8D2BDA3D583126B4F168E555FB8A/..\..\cores\69cc2d20a9c0859fc6838a3a84e0426a\core.a(heap_4.c.o)
 .bss.xFreeBytesRemaining
                0x0000000020000cec        0x4 C:\Users\minec\AppData\Local\arduino\sketches\CBAA8D2BDA3D583126B4F168E555FB8A/..\..\cores\69cc2d20a9c0859fc6838a3a84e0426a\core.a(heap_4.c.o)
 .bss.xMinimumEverFreeBytesRemaining
                0x0000000020000cf0        0x4 C:\Users\minec\AppData\Local\arduino\sketches\CBAA8D2BDA3D583126B4F168E555FB8A/..\..\cores\69cc2d20a9c0859fc6838a3a84e0426a\core.a(heap_4.c.o)
 .bss.xNumberOfSuccessfulAllocations
                0x0000000020000cf4        0x4 C:\Users\minec\AppData\Local\arduino\sketches\CBAA8D2BDA3D583126B4F168E555FB8A/..\..\cores\69cc2d20a9c0859fc6838a3a84e0426a\core.a(heap_4.c.o)
 .bss.xNumberOfSuccessfulFrees
                0x0000000020000cf8        0x4 C:\Users\minec\AppData\Local\arduino\sketches\CBAA8D2BDA3D583126B4F168E555FB8A/..\..\cores\69cc2d20a9c0859fc6838a3a84e0426a\core.a(heap_4.c.o)
 .bss.xStart    0x0000000020000cfc        0x8 C:\Users\minec\AppData\Local\arduino\sketches\CBAA8D2BDA3D583126B4F168E555FB8A/..\..\cores\69cc2d20a9c0859fc6838a3a84e0426a\core.a(heap_4.c.o)
 .bss.uxCriticalNesting
                0x0000000020000d04        0x4 C:\Users\minec\AppData\Local\arduino\sketches\CBAA8D2BDA3D583126B4F168E555FB8A/..\..\cores\69cc2d20a9c0859fc6838a3a84e0426a\core.a(port_nrf52.c.o)
 .bss.uxIdleTaskStack.2
                0x0000000020000d08      0x1e0 C:\Users\minec\AppData\Local\arduino\sketches\CBAA8D2BDA3D583126B4F168E555FB8A/..\..\cores\69cc2d20a9c0859fc6838a3a84e0426a\core.a(static_tasks.c.o)
 .bss.uxTimerTaskStack.0
                0x0000000020000ee8      0x400 C:\Users\minec\AppData\Local\arduino\sketches\CBAA8D2BDA3D583126B4F168E555FB8A/..\..\cores\69cc2d20a9c0859fc6838a3a84e0426a\core.a(static_tasks.c.o)
 .bss.xIdleTaskTCB.3
                0x00000000200012e8       0x50 C:\Users\minec\AppData\Local\arduino\sketches\CBAA8D2BDA3D583126B4F168E555FB8A/..\..\cores\69cc2d20a9c0859fc6838a3a84e0426a\core.a(static_tasks.c.o)
 .bss.xTimerTaskTCB.1
                0x0000000020001338       0x50 C:\Users\minec\AppData\Local\arduino\sketches\CBAA8D2BDA3D583126B4F168E555FB8A/..\..\cores\69cc2d20a9c0859fc6838a3a84e0426a\core.a(static_tasks.c.o)
 .bss.m_clock_cb
                0x0000000020001388        0x8 C:\Users\minec\AppData\Local\arduino\sketches\CBAA8D2BDA3D583126B4F168E555FB8A/..\..\cores\69cc2d20a9c0859fc6838a3a84e0426a\core.a(nrfx_clock.c.o)
 .bss.nrfx_clock_irq_enabled
                0x0000000020001390        0x1 C:\Users\minec\AppData\Local\arduino\sketches\CBAA8D2BDA3D583126B4F168E555FB8A/..\..\cores\69cc2d20a9c0859fc6838a3a84e0426a\core.a(nrfx_clock.c.o)
                0x0000000020001390                nrfx_clock_irq_enabled
 *fill*         0x0000000020001391        0x3 
 .bss.m_pofwarn_handler
                0x0000000020001394        0x4 C:\Users\minec\AppData\Local\arduino\sketches\CBAA8D2BDA3D583126B4F168E555FB8A/..\..\cores\69cc2d20a9c0859fc6838a3a84e0426a\core.a(nrfx_power.c.o)
 .bss.m_sleepevt_handler
                0x0000000020001398        0x4 C:\Users\minec\AppData\Local\arduino\sketches\CBAA8D2BDA3D583126B4F168E555FB8A/..\..\cores\69cc2d20a9c0859fc6838a3a84e0426a\core.a(nrfx_power.c.o)
 .bss.errno     0x000000002000139c        0x4 c:/users/minec/appdata/local/arduino15/packages/n-able-arduino/tools/gcc-arm-none-eabi/10.3.1-2.1/bin/../lib/gcc/arm-none-eabi/10.3.1/../../../../arm-none-eabi/lib/thumb/v7e-m/nofp\libc_nano.a(lib_a-reent.o)
                0x000000002000139c                errno
 *(COMMON)
                0x00000000200013a0                . = ALIGN (0x4)
                0x00000000200013a0                __bss_end__ = .

.heap           0x00000000200013a0      0x800
                0x00000000200013a0                __HeapBase = .
                0x00000000200013a0                __end__ = .
                [!provide]                        PROVIDE (end = .)
 *(.heap*)
 .heap          0x00000000200013a0      0x800 C:\Users\minec\AppData\Local\arduino\sketches\CBAA8D2BDA3D583126B4F168E555FB8A/..\..\cores\69cc2d20a9c0859fc6838a3a84e0426a\core.a(gcc_startup_nrf52810.S.o)
                0x0000000020001ba0                __HeapLimit = .

.stack_dummy    0x00000000200013a0      0x280
 *(.stack*)
 .stack         0x00000000200013a0      0x280 C:\Users\minec\AppData\Local\arduino\sketches\CBAA8D2BDA3D583126B4F168E555FB8A/..\..\cores\69cc2d20a9c0859fc6838a3a84e0426a\core.a(gcc_startup_nrf52810.S.o)
                0x0000000020006000                __StackTop = (ORIGIN (RAM) + LENGTH (RAM))
                0x0000000020005d80                __StackLimit = (__StackTop - SIZEOF (.stack_dummy))
                0x0000000020006000                PROVIDE (__stack = __StackTop)
                0x0000000000000001                ASSERT ((__StackLimit >= __HeapLimit), region RAM overflowed with stack)
                0x0000000000000080                DataInitFlashUsed = (__bss_start__ - __data_start__)
                0x0000000000005cf0                CodeFlashUsed = (__etext - ORIGIN (FLASH))
                0x0000000000005d70                TotalFlashUsed = (CodeFlashUsed + DataInitFlashUsed)
                0x0000000000000001                ASSERT ((TotalFlashUsed <= LENGTH (FLASH)), region FLASH overflowed with .data and user data)
OUTPUT(C:\Users\minec\AppData\Local\arduino\sketches\CBAA8D2BDA3D583126B4F168E555FB8A/BlinkLEDs.ino.elf elf32-littlearm)
LOAD linker stubs

.ARM.attributes
                0x0000000000000000       0x2a
 .ARM.attributes
                0x0000000000000000       0x1e c:/users/minec/appdata/local/arduino15/packages/n-able-arduino/tools/gcc-arm-none-eabi/10.3.1-2.1/bin/../lib/gcc/arm-none-eabi/10.3.1/thumb/v7e-m/nofp/crti.o
 .ARM.attributes
                0x000000000000001e       0x2e c:/users/minec/appdata/local/arduino15/packages/n-able-arduino/tools/gcc-arm-none-eabi/10.3.1-2.1/bin/../lib/gcc/arm-none-eabi/10.3.1/thumb/v7e-m/nofp/crtbegin.o
 .ARM.attributes
                0x000000000000004c       0x1c c:/users/minec/appdata/local/arduino15/packages/n-able-arduino/tools/gcc-arm-none-eabi/10.3.1-2.1/bin/../lib/gcc/arm-none-eabi/10.3.1/../../../../arm-none-eabi/lib/thumb/v7e-m/nofp/crt0.o
 .ARM.attributes
                0x0000000000000068       0x2e C:\Users\minec\AppData\Local\arduino\sketches\CBAA8D2BDA3D583126B4F168E555FB8A\sketch\BlinkLEDs.ino.cpp.o
 .ARM.attributes
                0x0000000000000096       0x2e C:\Users\minec\AppData\Local\arduino\sketches\CBAA8D2BDA3D583126B4F168E555FB8A\core\variant.cpp.o
 .ARM.attributes
                0x00000000000000c4       0x2e C:\Users\minec\AppData\Local\arduino\sketches\CBAA8D2BDA3D583126B4F168E555FB8A/..\..\cores\69cc2d20a9c0859fc6838a3a84e0426a\core.a(delay.c.o)
 .ARM.attributes
                0x00000000000000f2       0x2e C:\Users\minec\AppData\Local\arduino\sketches\CBAA8D2BDA3D583126B4F168E555FB8A/..\..\cores\69cc2d20a9c0859fc6838a3a84e0426a\core.a(tasks.c.o)
 .ARM.attributes
                0x0000000000000120       0x2e C:\Users\minec\AppData\Local\arduino\sketches\CBAA8D2BDA3D583126B4F168E555FB8A/..\..\cores\69cc2d20a9c0859fc6838a3a84e0426a\core.a(timers.c.o)
 .ARM.attributes
                0x000000000000014e       0x2e C:\Users\minec\AppData\Local\arduino\sketches\CBAA8D2BDA3D583126B4F168E555FB8A/..\..\cores\69cc2d20a9c0859fc6838a3a84e0426a\core.a(main.cpp.o)
 .ARM.attributes
                0x000000000000017c       0x1c C:\Users\minec\AppData\Local\arduino\sketches\CBAA8D2BDA3D583126B4F168E555FB8A/..\..\cores\69cc2d20a9c0859fc6838a3a84e0426a\core.a(gcc_startup_nrf52810.S.o)
 .ARM.attributes
                0x0000000000000198       0x2e C:\Users\minec\AppData\Local\arduino\sketches\CBAA8D2BDA3D583126B4F168E555FB8A/..\..\cores\69cc2d20a9c0859fc6838a3a84e0426a\core.a(system_nrf52810.c.o)
 .ARM.attributes
                0x00000000000001c6       0x2e C:\Users\minec\AppData\Local\arduino\sketches\CBAA8D2BDA3D583126B4F168E555FB8A/..\..\cores\69cc2d20a9c0859fc6838a3a84e0426a\core.a(rtos.cpp.o)
 .ARM.attributes
                0x00000000000001f4       0x2e C:\Users\minec\AppData\Local\arduino\sketches\CBAA8D2BDA3D583126B4F168E555FB8A/..\..\cores\69cc2d20a9c0859fc6838a3a84e0426a\core.a(debug_utils.cpp.o)
 .ARM.attributes
                0x0000000000000222       0x2e C:\Users\minec\AppData\Local\arduino\sketches\CBAA8D2BDA3D583126B4F168E555FB8A/..\..\cores\69cc2d20a9c0859fc6838a3a84e0426a\core.a(wiring.c.o)
 .ARM.attributes
                0x0000000000000250       0x2e C:\Users\minec\AppData\Local\arduino\sketches\CBAA8D2BDA3D583126B4F168E555FB8A/..\..\cores\69cc2d20a9c0859fc6838a3a84e0426a\core.a(wiring_digital.c.o)
 .ARM.attributes
                0x000000000000027e       0x2e C:\Users\minec\AppData\Local\arduino\sketches\CBAA8D2BDA3D583126B4F168E555FB8A/..\..\cores\69cc2d20a9c0859fc6838a3a84e0426a\core.a(Print.cpp.o)
 .ARM.attributes
                0x00000000000002ac       0x2e C:\Users\minec\AppData\Local\arduino\sketches\CBAA8D2BDA3D583126B4F168E555FB8A/..\..\cores\69cc2d20a9c0859fc6838a3a84e0426a\core.a(Uart.cpp.o)
 .ARM.attributes
                0x00000000000002da       0x2e C:\Users\minec\AppData\Local\arduino\sketches\CBAA8D2BDA3D583126B4F168E555FB8A/..\..\cores\69cc2d20a9c0859fc6838a3a84e0426a\core.a(heap_4.c.o)
 .ARM.attributes
                0x0000000000000308       0x2e C:\Users\minec\AppData\Local\arduino\sketches\CBAA8D2BDA3D583126B4F168E555FB8A/..\..\cores\69cc2d20a9c0859fc6838a3a84e0426a\core.a(list.c.o)
 .ARM.attributes
                0x0000000000000336       0x2e C:\Users\minec\AppData\Local\arduino\sketches\CBAA8D2BDA3D583126B4F168E555FB8A/..\..\cores\69cc2d20a9c0859fc6838a3a84e0426a\core.a(port_nrf52.c.o)
 .ARM.attributes
                0x0000000000000364       0x2e C:\Users\minec\AppData\Local\arduino\sketches\CBAA8D2BDA3D583126B4F168E555FB8A/..\..\cores\69cc2d20a9c0859fc6838a3a84e0426a\core.a(port_nrf52_systick.c.o)
 .ARM.attributes
                0x0000000000000392       0x2e C:\Users\minec\AppData\Local\arduino\sketches\CBAA8D2BDA3D583126B4F168E555FB8A/..\..\cores\69cc2d20a9c0859fc6838a3a84e0426a\core.a(queue.c.o)
 .ARM.attributes
                0x00000000000003c0       0x2e C:\Users\minec\AppData\Local\arduino\sketches\CBAA8D2BDA3D583126B4F168E555FB8A/..\..\cores\69cc2d20a9c0859fc6838a3a84e0426a\core.a(static_tasks.c.o)
 .ARM.attributes
                0x00000000000003ee       0x2e C:\Users\minec\AppData\Local\arduino\sketches\CBAA8D2BDA3D583126B4F168E555FB8A/..\..\cores\69cc2d20a9c0859fc6838a3a84e0426a\core.a(printf.c.o)
 .ARM.attributes
                0x000000000000041c       0x2e C:\Users\minec\AppData\Local\arduino\sketches\CBAA8D2BDA3D583126B4F168E555FB8A/..\..\cores\69cc2d20a9c0859fc6838a3a84e0426a\core.a(putchar.cpp.o)
 .ARM.attributes
                0x000000000000044a       0x2e C:\Users\minec\AppData\Local\arduino\sketches\CBAA8D2BDA3D583126B4F168E555FB8A/..\..\cores\69cc2d20a9c0859fc6838a3a84e0426a\core.a(new.cpp.o)
 .ARM.attributes
                0x0000000000000478       0x2e C:\Users\minec\AppData\Local\arduino\sketches\CBAA8D2BDA3D583126B4F168E555FB8A/..\..\cores\69cc2d20a9c0859fc6838a3a84e0426a\core.a(nrfx_clock.c.o)
 .ARM.attributes
                0x00000000000004a6       0x2e C:\Users\minec\AppData\Local\arduino\sketches\CBAA8D2BDA3D583126B4F168E555FB8A/..\..\cores\69cc2d20a9c0859fc6838a3a84e0426a\core.a(nrfx_power.c.o)
 .ARM.attributes
                0x00000000000004d4       0x2e C:\Users\minec\AppData\Local\arduino\sketches\CBAA8D2BDA3D583126B4F168E555FB8A/..\..\cores\69cc2d20a9c0859fc6838a3a84e0426a\core.a(RingBuffer.cpp.o)
 .ARM.attributes
                0x0000000000000502       0x2e C:\Users\minec\AppData\Local\arduino\sketches\CBAA8D2BDA3D583126B4F168E555FB8A/..\..\cores\69cc2d20a9c0859fc6838a3a84e0426a\core.a(port.c.o)
 .ARM.attributes
                0x0000000000000530       0x2e C:\Users\minec\AppData\Local\arduino\sketches\CBAA8D2BDA3D583126B4F168E555FB8A/..\..\cores\69cc2d20a9c0859fc6838a3a84e0426a\core.a(malloc.c.o)
 .ARM.attributes
                0x000000000000055e       0x2e c:/users/minec/appdata/local/arduino15/packages/n-able-arduino/tools/gcc-arm-none-eabi/10.3.1-2.1/bin/../lib/gcc/arm-none-eabi/10.3.1/../../../../arm-none-eabi/lib/thumb/v7e-m/nofp\libstdc++_nano.a(atexit_arm.o)
 .ARM.attributes
                0x000000000000058c       0x1e c:/users/minec/appdata/local/arduino15/packages/n-able-arduino/tools/gcc-arm-none-eabi/10.3.1-2.1/bin/../lib/gcc/arm-none-eabi/10.3.1/thumb/v7e-m/nofp\libgcc.a(_arm_addsubdf3.o)
 .ARM.attributes
                0x00000000000005aa       0x1e c:/users/minec/appdata/local/arduino15/packages/n-able-arduino/tools/gcc-arm-none-eabi/10.3.1-2.1/bin/../lib/gcc/arm-none-eabi/10.3.1/thumb/v7e-m/nofp\libgcc.a(_arm_muldivdf3.o)
 .ARM.attributes
                0x00000000000005c8       0x1e c:/users/minec/appdata/local/arduino15/packages/n-able-arduino/tools/gcc-arm-none-eabi/10.3.1-2.1/bin/../lib/gcc/arm-none-eabi/10.3.1/thumb/v7e-m/nofp\libgcc.a(_arm_cmpdf2.o)
 .ARM.attributes
                0x00000000000005e6       0x1e c:/users/minec/appdata/local/arduino15/packages/n-able-arduino/tools/gcc-arm-none-eabi/10.3.1-2.1/bin/../lib/gcc/arm-none-eabi/10.3.1/thumb/v7e-m/nofp\libgcc.a(_arm_fixdfsi.o)
 .ARM.attributes
                0x0000000000000604       0x1e c:/users/minec/appdata/local/arduino15/packages/n-able-arduino/tools/gcc-arm-none-eabi/10.3.1-2.1/bin/../lib/gcc/arm-none-eabi/10.3.1/thumb/v7e-m/nofp\libgcc.a(_arm_fixunsdfsi.o)
 .ARM.attributes
                0x0000000000000622       0x1e c:/users/minec/appdata/local/arduino15/packages/n-able-arduino/tools/gcc-arm-none-eabi/10.3.1-2.1/bin/../lib/gcc/arm-none-eabi/10.3.1/thumb/v7e-m/nofp\libgcc.a(_aeabi_ldivmod.o)
 .ARM.attributes
                0x0000000000000640       0x1e c:/users/minec/appdata/local/arduino15/packages/n-able-arduino/tools/gcc-arm-none-eabi/10.3.1-2.1/bin/../lib/gcc/arm-none-eabi/10.3.1/thumb/v7e-m/nofp\libgcc.a(_aeabi_uldivmod.o)
 .ARM.attributes
                0x000000000000065e       0x2e c:/users/minec/appdata/local/arduino15/packages/n-able-arduino/tools/gcc-arm-none-eabi/10.3.1-2.1/bin/../lib/gcc/arm-none-eabi/10.3.1/thumb/v7e-m/nofp\libgcc.a(_fixdfdi.o)
 .ARM.attributes
                0x000000000000068c       0x2e c:/users/minec/appdata/local/arduino15/packages/n-able-arduino/tools/gcc-arm-none-eabi/10.3.1-2.1/bin/../lib/gcc/arm-none-eabi/10.3.1/thumb/v7e-m/nofp\libgcc.a(_fixunsdfdi.o)
 .ARM.attributes
                0x00000000000006ba       0x2e c:/users/minec/appdata/local/arduino15/packages/n-able-arduino/tools/gcc-arm-none-eabi/10.3.1-2.1/bin/../lib/gcc/arm-none-eabi/10.3.1/thumb/v7e-m/nofp\libgcc.a(_udivmoddi4.o)
 .ARM.attributes
                0x00000000000006e8       0x2e c:/users/minec/appdata/local/arduino15/packages/n-able-arduino/tools/gcc-arm-none-eabi/10.3.1-2.1/bin/../lib/gcc/arm-none-eabi/10.3.1/thumb/v7e-m/nofp\libgcc.a(unwind-arm.o)
 .ARM.attributes
                0x0000000000000716       0x1e c:/users/minec/appdata/local/arduino15/packages/n-able-arduino/tools/gcc-arm-none-eabi/10.3.1-2.1/bin/../lib/gcc/arm-none-eabi/10.3.1/thumb/v7e-m/nofp\libgcc.a(libunwind.o)
 .ARM.attributes
                0x0000000000000734       0x2e c:/users/minec/appdata/local/arduino15/packages/n-able-arduino/tools/gcc-arm-none-eabi/10.3.1-2.1/bin/../lib/gcc/arm-none-eabi/10.3.1/thumb/v7e-m/nofp\libgcc.a(pr-support.o)
 .ARM.attributes
                0x0000000000000762       0x1e c:/users/minec/appdata/local/arduino15/packages/n-able-arduino/tools/gcc-arm-none-eabi/10.3.1-2.1/bin/../lib/gcc/arm-none-eabi/10.3.1/thumb/v7e-m/nofp\libgcc.a(_dvmd_tls.o)
 .ARM.attributes
                0x0000000000000780       0x2e c:/users/minec/appdata/local/arduino15/packages/n-able-arduino/tools/gcc-arm-none-eabi/10.3.1-2.1/bin/../lib/gcc/arm-none-eabi/10.3.1/../../../../arm-none-eabi/lib/thumb/v7e-m/nofp\libc_nano.a(lib_a-abort.o)
 .ARM.attributes
                0x00000000000007ae       0x2e c:/users/minec/appdata/local/arduino15/packages/n-able-arduino/tools/gcc-arm-none-eabi/10.3.1-2.1/bin/../lib/gcc/arm-none-eabi/10.3.1/../../../../arm-none-eabi/lib/thumb/v7e-m/nofp\libc_nano.a(lib_a-cxa_atexit.o)
 .ARM.attributes
                0x00000000000007dc       0x2e c:/users/minec/appdata/local/arduino15/packages/n-able-arduino/tools/gcc-arm-none-eabi/10.3.1-2.1/bin/../lib/gcc/arm-none-eabi/10.3.1/../../../../arm-none-eabi/lib/thumb/v7e-m/nofp\libc_nano.a(lib_a-exit.o)
 .ARM.attributes
                0x000000000000080a       0x2e c:/users/minec/appdata/local/arduino15/packages/n-able-arduino/tools/gcc-arm-none-eabi/10.3.1-2.1/bin/../lib/gcc/arm-none-eabi/10.3.1/../../../../arm-none-eabi/lib/thumb/v7e-m/nofp\libc_nano.a(lib_a-impure.o)
 .ARM.attributes
                0x0000000000000838       0x2e c:/users/minec/appdata/local/arduino15/packages/n-able-arduino/tools/gcc-arm-none-eabi/10.3.1-2.1/bin/../lib/gcc/arm-none-eabi/10.3.1/../../../../arm-none-eabi/lib/thumb/v7e-m/nofp\libc_nano.a(lib_a-init.o)
 .ARM.attributes
                0x0000000000000866       0x2e c:/users/minec/appdata/local/arduino15/packages/n-able-arduino/tools/gcc-arm-none-eabi/10.3.1-2.1/bin/../lib/gcc/arm-none-eabi/10.3.1/../../../../arm-none-eabi/lib/thumb/v7e-m/nofp\libc_nano.a(lib_a-memcpy-stub.o)
 .ARM.attributes
                0x0000000000000894       0x2e c:/users/minec/appdata/local/arduino15/packages/n-able-arduino/tools/gcc-arm-none-eabi/10.3.1-2.1/bin/../lib/gcc/arm-none-eabi/10.3.1/../../../../arm-none-eabi/lib/thumb/v7e-m/nofp\libc_nano.a(lib_a-memset.o)
 .ARM.attributes
                0x00000000000008c2       0x2e c:/users/minec/appdata/local/arduino15/packages/n-able-arduino/tools/gcc-arm-none-eabi/10.3.1-2.1/bin/../lib/gcc/arm-none-eabi/10.3.1/../../../../arm-none-eabi/lib/thumb/v7e-m/nofp\libc_nano.a(lib_a-signal.o)
 .ARM.attributes
                0x00000000000008f0       0x2e c:/users/minec/appdata/local/arduino15/packages/n-able-arduino/tools/gcc-arm-none-eabi/10.3.1-2.1/bin/../lib/gcc/arm-none-eabi/10.3.1/../../../../arm-none-eabi/lib/thumb/v7e-m/nofp\libc_nano.a(lib_a-signalr.o)
 .ARM.attributes
                0x000000000000091e       0x17 c:/users/minec/appdata/local/arduino15/packages/n-able-arduino/tools/gcc-arm-none-eabi/10.3.1-2.1/bin/../lib/gcc/arm-none-eabi/10.3.1/../../../../arm-none-eabi/lib/thumb/v7e-m/nofp\libc_nano.a(lib_a-strlen.o)
 .ARM.attributes
                0x0000000000000935       0x2e c:/users/minec/appdata/local/arduino15/packages/n-able-arduino/tools/gcc-arm-none-eabi/10.3.1-2.1/bin/../lib/gcc/arm-none-eabi/10.3.1/../../../../arm-none-eabi/lib/thumb/v7e-m/nofp\libc_nano.a(lib_a-reent.o)
 .ARM.attributes
                0x0000000000000963       0x2e c:/users/minec/appdata/local/arduino15/packages/n-able-arduino/tools/gcc-arm-none-eabi/10.3.1-2.1/bin/../lib/gcc/arm-none-eabi/10.3.1/../../../../arm-none-eabi/lib/thumb/v7e-m/nofp\libnosys.a(getpid.o)
 .ARM.attributes
                0x0000000000000991       0x2e c:/users/minec/appdata/local/arduino15/packages/n-able-arduino/tools/gcc-arm-none-eabi/10.3.1-2.1/bin/../lib/gcc/arm-none-eabi/10.3.1/../../../../arm-none-eabi/lib/thumb/v7e-m/nofp\libnosys.a(kill.o)
 .ARM.attributes
                0x00000000000009bf       0x2e c:/users/minec/appdata/local/arduino15/packages/n-able-arduino/tools/gcc-arm-none-eabi/10.3.1-2.1/bin/../lib/gcc/arm-none-eabi/10.3.1/../../../../arm-none-eabi/lib/thumb/v7e-m/nofp\libnosys.a(_exit.o)
 .ARM.attributes
                0x00000000000009ed       0x2e c:/users/minec/appdata/local/arduino15/packages/n-able-arduino/tools/gcc-arm-none-eabi/10.3.1-2.1/bin/../lib/gcc/arm-none-eabi/10.3.1/thumb/v7e-m/nofp/crtend.o
 .ARM.attributes
                0x0000000000000a1b       0x1e c:/users/minec/appdata/local/arduino15/packages/n-able-arduino/tools/gcc-arm-none-eabi/10.3.1-2.1/bin/../lib/gcc/arm-none-eabi/10.3.1/thumb/v7e-m/nofp/crtn.o

.comment        0x0000000000000000       0x43
 .comment       0x0000000000000000       0x43 C:\Users\minec\AppData\Local\arduino\sketches\CBAA8D2BDA3D583126B4F168E555FB8A\sketch\BlinkLEDs.ino.cpp.o
                                         0x44 (size before relaxing)
 .comment       0x0000000000000043       0x44 C:\Users\minec\AppData\Local\arduino\sketches\CBAA8D2BDA3D583126B4F168E555FB8A\core\variant.cpp.o
 .comment       0x0000000000000043       0x44 C:\Users\minec\AppData\Local\arduino\sketches\CBAA8D2BDA3D583126B4F168E555FB8A/..\..\cores\69cc2d20a9c0859fc6838a3a84e0426a\core.a(delay.c.o)
 .comment       0x0000000000000043       0x44 C:\Users\minec\AppData\Local\arduino\sketches\CBAA8D2BDA3D583126B4F168E555FB8A/..\..\cores\69cc2d20a9c0859fc6838a3a84e0426a\core.a(tasks.c.o)
 .comment       0x0000000000000043       0x44 C:\Users\minec\AppData\Local\arduino\sketches\CBAA8D2BDA3D583126B4F168E555FB8A/..\..\cores\69cc2d20a9c0859fc6838a3a84e0426a\core.a(timers.c.o)
 .comment       0x0000000000000043       0x44 C:\Users\minec\AppData\Local\arduino\sketches\CBAA8D2BDA3D583126B4F168E555FB8A/..\..\cores\69cc2d20a9c0859fc6838a3a84e0426a\core.a(main.cpp.o)
 .comment       0x0000000000000043       0x44 C:\Users\minec\AppData\Local\arduino\sketches\CBAA8D2BDA3D583126B4F168E555FB8A/..\..\cores\69cc2d20a9c0859fc6838a3a84e0426a\core.a(system_nrf52810.c.o)
 .comment       0x0000000000000043       0x44 C:\Users\minec\AppData\Local\arduino\sketches\CBAA8D2BDA3D583126B4F168E555FB8A/..\..\cores\69cc2d20a9c0859fc6838a3a84e0426a\core.a(rtos.cpp.o)
 .comment       0x0000000000000043       0x44 C:\Users\minec\AppData\Local\arduino\sketches\CBAA8D2BDA3D583126B4F168E555FB8A/..\..\cores\69cc2d20a9c0859fc6838a3a84e0426a\core.a(debug_utils.cpp.o)
 .comment       0x0000000000000043       0x44 C:\Users\minec\AppData\Local\arduino\sketches\CBAA8D2BDA3D583126B4F168E555FB8A/..\..\cores\69cc2d20a9c0859fc6838a3a84e0426a\core.a(wiring.c.o)
 .comment       0x0000000000000043       0x44 C:\Users\minec\AppData\Local\arduino\sketches\CBAA8D2BDA3D583126B4F168E555FB8A/..\..\cores\69cc2d20a9c0859fc6838a3a84e0426a\core.a(wiring_digital.c.o)
 .comment       0x0000000000000043       0x44 C:\Users\minec\AppData\Local\arduino\sketches\CBAA8D2BDA3D583126B4F168E555FB8A/..\..\cores\69cc2d20a9c0859fc6838a3a84e0426a\core.a(Print.cpp.o)
 .comment       0x0000000000000043       0x44 C:\Users\minec\AppData\Local\arduino\sketches\CBAA8D2BDA3D583126B4F168E555FB8A/..\..\cores\69cc2d20a9c0859fc6838a3a84e0426a\core.a(Uart.cpp.o)
 .comment       0x0000000000000043       0x44 C:\Users\minec\AppData\Local\arduino\sketches\CBAA8D2BDA3D583126B4F168E555FB8A/..\..\cores\69cc2d20a9c0859fc6838a3a84e0426a\core.a(heap_4.c.o)
 .comment       0x0000000000000043       0x44 C:\Users\minec\AppData\Local\arduino\sketches\CBAA8D2BDA3D583126B4F168E555FB8A/..\..\cores\69cc2d20a9c0859fc6838a3a84e0426a\core.a(list.c.o)
 .comment       0x0000000000000043       0x44 C:\Users\minec\AppData\Local\arduino\sketches\CBAA8D2BDA3D583126B4F168E555FB8A/..\..\cores\69cc2d20a9c0859fc6838a3a84e0426a\core.a(port_nrf52.c.o)
 .comment       0x0000000000000043       0x44 C:\Users\minec\AppData\Local\arduino\sketches\CBAA8D2BDA3D583126B4F168E555FB8A/..\..\cores\69cc2d20a9c0859fc6838a3a84e0426a\core.a(port_nrf52_systick.c.o)
 .comment       0x0000000000000043       0x44 C:\Users\minec\AppData\Local\arduino\sketches\CBAA8D2BDA3D583126B4F168E555FB8A/..\..\cores\69cc2d20a9c0859fc6838a3a84e0426a\core.a(queue.c.o)
 .comment       0x0000000000000043       0x44 C:\Users\minec\AppData\Local\arduino\sketches\CBAA8D2BDA3D583126B4F168E555FB8A/..\..\cores\69cc2d20a9c0859fc6838a3a84e0426a\core.a(static_tasks.c.o)
 .comment       0x0000000000000043       0x44 C:\Users\minec\AppData\Local\arduino\sketches\CBAA8D2BDA3D583126B4F168E555FB8A/..\..\cores\69cc2d20a9c0859fc6838a3a84e0426a\core.a(printf.c.o)
 .comment       0x0000000000000043       0x44 C:\Users\minec\AppData\Local\arduino\sketches\CBAA8D2BDA3D583126B4F168E555FB8A/..\..\cores\69cc2d20a9c0859fc6838a3a84e0426a\core.a(putchar.cpp.o)
 .comment       0x0000000000000043       0x44 C:\Users\minec\AppData\Local\arduino\sketches\CBAA8D2BDA3D583126B4F168E555FB8A/..\..\cores\69cc2d20a9c0859fc6838a3a84e0426a\core.a(new.cpp.o)
 .comment       0x0000000000000043       0x44 C:\Users\minec\AppData\Local\arduino\sketches\CBAA8D2BDA3D583126B4F168E555FB8A/..\..\cores\69cc2d20a9c0859fc6838a3a84e0426a\core.a(nrfx_clock.c.o)
 .comment       0x0000000000000043       0x44 C:\Users\minec\AppData\Local\arduino\sketches\CBAA8D2BDA3D583126B4F168E555FB8A/..\..\cores\69cc2d20a9c0859fc6838a3a84e0426a\core.a(nrfx_power.c.o)
 .comment       0x0000000000000043       0x44 C:\Users\minec\AppData\Local\arduino\sketches\CBAA8D2BDA3D583126B4F168E555FB8A/..\..\cores\69cc2d20a9c0859fc6838a3a84e0426a\core.a(RingBuffer.cpp.o)
 .comment       0x0000000000000043       0x44 C:\Users\minec\AppData\Local\arduino\sketches\CBAA8D2BDA3D583126B4F168E555FB8A/..\..\cores\69cc2d20a9c0859fc6838a3a84e0426a\core.a(port.c.o)
 .comment       0x0000000000000043       0x44 C:\Users\minec\AppData\Local\arduino\sketches\CBAA8D2BDA3D583126B4F168E555FB8A/..\..\cores\69cc2d20a9c0859fc6838a3a84e0426a\core.a(malloc.c.o)

.debug_info     0x0000000000000000    0x29b70
 .debug_info    0x0000000000000000     0x236c C:\Users\minec\AppData\Local\arduino\sketches\CBAA8D2BDA3D583126B4F168E555FB8A\sketch\BlinkLEDs.ino.cpp.o
 .debug_info    0x000000000000236c      0x17d C:\Users\minec\AppData\Local\arduino\sketches\CBAA8D2BDA3D583126B4F168E555FB8A\core\variant.cpp.o
 .debug_info    0x00000000000024e9      0x423 C:\Users\minec\AppData\Local\arduino\sketches\CBAA8D2BDA3D583126B4F168E555FB8A/..\..\cores\69cc2d20a9c0859fc6838a3a84e0426a\core.a(delay.c.o)
 .debug_info    0x000000000000290c     0x30d5 C:\Users\minec\AppData\Local\arduino\sketches\CBAA8D2BDA3D583126B4F168E555FB8A/..\..\cores\69cc2d20a9c0859fc6838a3a84e0426a\core.a(tasks.c.o)
 .debug_info    0x00000000000059e1     0x1b59 C:\Users\minec\AppData\Local\arduino\sketches\CBAA8D2BDA3D583126B4F168E555FB8A/..\..\cores\69cc2d20a9c0859fc6838a3a84e0426a\core.a(timers.c.o)
 .debug_info    0x000000000000753a     0x27c8 C:\Users\minec\AppData\Local\arduino\sketches\CBAA8D2BDA3D583126B4F168E555FB8A/..\..\cores\69cc2d20a9c0859fc6838a3a84e0426a\core.a(main.cpp.o)
 .debug_info    0x0000000000009d02       0x26 C:\Users\minec\AppData\Local\arduino\sketches\CBAA8D2BDA3D583126B4F168E555FB8A/..\..\cores\69cc2d20a9c0859fc6838a3a84e0426a\core.a(gcc_startup_nrf52810.S.o)
 .debug_info    0x0000000000009d28      0xdd5 C:\Users\minec\AppData\Local\arduino\sketches\CBAA8D2BDA3D583126B4F168E555FB8A/..\..\cores\69cc2d20a9c0859fc6838a3a84e0426a\core.a(system_nrf52810.c.o)
 .debug_info    0x000000000000aafd     0x2d44 C:\Users\minec\AppData\Local\arduino\sketches\CBAA8D2BDA3D583126B4F168E555FB8A/..\..\cores\69cc2d20a9c0859fc6838a3a84e0426a\core.a(rtos.cpp.o)
 .debug_info    0x000000000000d841     0x31d2 C:\Users\minec\AppData\Local\arduino\sketches\CBAA8D2BDA3D583126B4F168E555FB8A/..\..\cores\69cc2d20a9c0859fc6838a3a84e0426a\core.a(debug_utils.cpp.o)
 .debug_info    0x0000000000010a13     0x1028 C:\Users\minec\AppData\Local\arduino\sketches\CBAA8D2BDA3D583126B4F168E555FB8A/..\..\cores\69cc2d20a9c0859fc6838a3a84e0426a\core.a(wiring.c.o)
 .debug_info    0x0000000000011a3b      0xb04 C:\Users\minec\AppData\Local\arduino\sketches\CBAA8D2BDA3D583126B4F168E555FB8A/..\..\cores\69cc2d20a9c0859fc6838a3a84e0426a\core.a(wiring_digital.c.o)
 .debug_info    0x000000000001253f     0x4cd9 C:\Users\minec\AppData\Local\arduino\sketches\CBAA8D2BDA3D583126B4F168E555FB8A/..\..\cores\69cc2d20a9c0859fc6838a3a84e0426a\core.a(Print.cpp.o)
 .debug_info    0x0000000000017218     0x5667 C:\Users\minec\AppData\Local\arduino\sketches\CBAA8D2BDA3D583126B4F168E555FB8A/..\..\cores\69cc2d20a9c0859fc6838a3a84e0426a\core.a(Uart.cpp.o)
 .debug_info    0x000000000001c87f      0x6ca C:\Users\minec\AppData\Local\arduino\sketches\CBAA8D2BDA3D583126B4F168E555FB8A/..\..\cores\69cc2d20a9c0859fc6838a3a84e0426a\core.a(heap_4.c.o)
 .debug_info    0x000000000001cf49      0x2e0 C:\Users\minec\AppData\Local\arduino\sketches\CBAA8D2BDA3D583126B4F168E555FB8A/..\..\cores\69cc2d20a9c0859fc6838a3a84e0426a\core.a(list.c.o)
 .debug_info    0x000000000001d229      0x7c2 C:\Users\minec\AppData\Local\arduino\sketches\CBAA8D2BDA3D583126B4F168E555FB8A/..\..\cores\69cc2d20a9c0859fc6838a3a84e0426a\core.a(port_nrf52.c.o)
 .debug_info    0x000000000001d9eb      0xfae C:\Users\minec\AppData\Local\arduino\sketches\CBAA8D2BDA3D583126B4F168E555FB8A/..\..\cores\69cc2d20a9c0859fc6838a3a84e0426a\core.a(port_nrf52_systick.c.o)
 .debug_info    0x000000000001e999     0x23ba C:\Users\minec\AppData\Local\arduino\sketches\CBAA8D2BDA3D583126B4F168E555FB8A/..\..\cores\69cc2d20a9c0859fc6838a3a84e0426a\core.a(queue.c.o)
 .debug_info    0x0000000000020d53      0x332 C:\Users\minec\AppData\Local\arduino\sketches\CBAA8D2BDA3D583126B4F168E555FB8A/..\..\cores\69cc2d20a9c0859fc6838a3a84e0426a\core.a(static_tasks.c.o)
 .debug_info    0x0000000000021085     0x24ed C:\Users\minec\AppData\Local\arduino\sketches\CBAA8D2BDA3D583126B4F168E555FB8A/..\..\cores\69cc2d20a9c0859fc6838a3a84e0426a\core.a(printf.c.o)
 .debug_info    0x0000000000023572     0x2550 C:\Users\minec\AppData\Local\arduino\sketches\CBAA8D2BDA3D583126B4F168E555FB8A/..\..\cores\69cc2d20a9c0859fc6838a3a84e0426a\core.a(putchar.cpp.o)
 .debug_info    0x0000000000025ac2      0x21e C:\Users\minec\AppData\Local\arduino\sketches\CBAA8D2BDA3D583126B4F168E555FB8A/..\..\cores\69cc2d20a9c0859fc6838a3a84e0426a\core.a(new.cpp.o)
 .debug_info    0x0000000000025ce0     0x13db C:\Users\minec\AppData\Local\arduino\sketches\CBAA8D2BDA3D583126B4F168E555FB8A/..\..\cores\69cc2d20a9c0859fc6838a3a84e0426a\core.a(nrfx_clock.c.o)
 .debug_info    0x00000000000270bb     0x17e1 C:\Users\minec\AppData\Local\arduino\sketches\CBAA8D2BDA3D583126B4F168E555FB8A/..\..\cores\69cc2d20a9c0859fc6838a3a84e0426a\core.a(nrfx_power.c.o)
 .debug_info    0x000000000002889c      0x4be C:\Users\minec\AppData\Local\arduino\sketches\CBAA8D2BDA3D583126B4F168E555FB8A/..\..\cores\69cc2d20a9c0859fc6838a3a84e0426a\core.a(RingBuffer.cpp.o)
 .debug_info    0x0000000000028d5a       0xb0 C:\Users\minec\AppData\Local\arduino\sketches\CBAA8D2BDA3D583126B4F168E555FB8A/..\..\cores\69cc2d20a9c0859fc6838a3a84e0426a\core.a(port.c.o)
 .debug_info    0x0000000000028e0a      0xd66 C:\Users\minec\AppData\Local\arduino\sketches\CBAA8D2BDA3D583126B4F168E555FB8A/..\..\cores\69cc2d20a9c0859fc6838a3a84e0426a\core.a(malloc.c.o)

.debug_abbrev   0x0000000000000000     0x60b6
 .debug_abbrev  0x0000000000000000      0x3dd C:\Users\minec\AppData\Local\arduino\sketches\CBAA8D2BDA3D583126B4F168E555FB8A\sketch\BlinkLEDs.ino.cpp.o
 .debug_abbrev  0x00000000000003dd       0xa0 C:\Users\minec\AppData\Local\arduino\sketches\CBAA8D2BDA3D583126B4F168E555FB8A\core\variant.cpp.o
 .debug_abbrev  0x000000000000047d      0x168 C:\Users\minec\AppData\Local\arduino\sketches\CBAA8D2BDA3D583126B4F168E555FB8A/..\..\cores\69cc2d20a9c0859fc6838a3a84e0426a\core.a(delay.c.o)
 .debug_abbrev  0x00000000000005e5      0x496 C:\Users\minec\AppData\Local\arduino\sketches\CBAA8D2BDA3D583126B4F168E555FB8A/..\..\cores\69cc2d20a9c0859fc6838a3a84e0426a\core.a(tasks.c.o)
 .debug_abbrev  0x0000000000000a7b      0x43f C:\Users\minec\AppData\Local\arduino\sketches\CBAA8D2BDA3D583126B4F168E555FB8A/..\..\cores\69cc2d20a9c0859fc6838a3a84e0426a\core.a(timers.c.o)
 .debug_abbrev  0x0000000000000eba      0x538 C:\Users\minec\AppData\Local\arduino\sketches\CBAA8D2BDA3D583126B4F168E555FB8A/..\..\cores\69cc2d20a9c0859fc6838a3a84e0426a\core.a(main.cpp.o)
 .debug_abbrev  0x00000000000013f2       0x14 C:\Users\minec\AppData\Local\arduino\sketches\CBAA8D2BDA3D583126B4F168E555FB8A/..\..\cores\69cc2d20a9c0859fc6838a3a84e0426a\core.a(gcc_startup_nrf52810.S.o)
 .debug_abbrev  0x0000000000001406      0x20c C:\Users\minec\AppData\Local\arduino\sketches\CBAA8D2BDA3D583126B4F168E555FB8A/..\..\cores\69cc2d20a9c0859fc6838a3a84e0426a\core.a(system_nrf52810.c.o)
 .debug_abbrev  0x0000000000001612      0x704 C:\Users\minec\AppData\Local\arduino\sketches\CBAA8D2BDA3D583126B4F168E555FB8A/..\..\cores\69cc2d20a9c0859fc6838a3a84e0426a\core.a(rtos.cpp.o)
 .debug_abbrev  0x0000000000001d16      0x6a5 C:\Users\minec\AppData\Local\arduino\sketches\CBAA8D2BDA3D583126B4F168E555FB8A/..\..\cores\69cc2d20a9c0859fc6838a3a84e0426a\core.a(debug_utils.cpp.o)
 .debug_abbrev  0x00000000000023bb      0x358 C:\Users\minec\AppData\Local\arduino\sketches\CBAA8D2BDA3D583126B4F168E555FB8A/..\..\cores\69cc2d20a9c0859fc6838a3a84e0426a\core.a(wiring.c.o)
 .debug_abbrev  0x0000000000002713      0x261 C:\Users\minec\AppData\Local\arduino\sketches\CBAA8D2BDA3D583126B4F168E555FB8A/..\..\cores\69cc2d20a9c0859fc6838a3a84e0426a\core.a(wiring_digital.c.o)
 .debug_abbrev  0x0000000000002974      0x782 C:\Users\minec\AppData\Local\arduino\sketches\CBAA8D2BDA3D583126B4F168E555FB8A/..\..\cores\69cc2d20a9c0859fc6838a3a84e0426a\core.a(Print.cpp.o)
 .debug_abbrev  0x00000000000030f6      0x8a9 C:\Users\minec\AppData\Local\arduino\sketches\CBAA8D2BDA3D583126B4F168E555FB8A/..\..\cores\69cc2d20a9c0859fc6838a3a84e0426a\core.a(Uart.cpp.o)
 .debug_abbrev  0x000000000000399f      0x29f C:\Users\minec\AppData\Local\arduino\sketches\CBAA8D2BDA3D583126B4F168E555FB8A/..\..\cores\69cc2d20a9c0859fc6838a3a84e0426a\core.a(heap_4.c.o)
 .debug_abbrev  0x0000000000003c3e      0x106 C:\Users\minec\AppData\Local\arduino\sketches\CBAA8D2BDA3D583126B4F168E555FB8A/..\..\cores\69cc2d20a9c0859fc6838a3a84e0426a\core.a(list.c.o)
 .debug_abbrev  0x0000000000003d44      0x2df C:\Users\minec\AppData\Local\arduino\sketches\CBAA8D2BDA3D583126B4F168E555FB8A/..\..\cores\69cc2d20a9c0859fc6838a3a84e0426a\core.a(port_nrf52.c.o)
 .debug_abbrev  0x0000000000004023      0x2f4 C:\Users\minec\AppData\Local\arduino\sketches\CBAA8D2BDA3D583126B4F168E555FB8A/..\..\cores\69cc2d20a9c0859fc6838a3a84e0426a\core.a(port_nrf52_systick.c.o)
 .debug_abbrev  0x0000000000004317      0x3a4 C:\Users\minec\AppData\Local\arduino\sketches\CBAA8D2BDA3D583126B4F168E555FB8A/..\..\cores\69cc2d20a9c0859fc6838a3a84e0426a\core.a(queue.c.o)
 .debug_abbrev  0x00000000000046bb       0xd1 C:\Users\minec\AppData\Local\arduino\sketches\CBAA8D2BDA3D583126B4F168E555FB8A/..\..\cores\69cc2d20a9c0859fc6838a3a84e0426a\core.a(static_tasks.c.o)
 .debug_abbrev  0x000000000000478c      0x45e C:\Users\minec\AppData\Local\arduino\sketches\CBAA8D2BDA3D583126B4F168E555FB8A/..\..\cores\69cc2d20a9c0859fc6838a3a84e0426a\core.a(printf.c.o)
 .debug_abbrev  0x0000000000004bea      0x571 C:\Users\minec\AppData\Local\arduino\sketches\CBAA8D2BDA3D583126B4F168E555FB8A/..\..\cores\69cc2d20a9c0859fc6838a3a84e0426a\core.a(putchar.cpp.o)
 .debug_abbrev  0x000000000000515b      0x106 C:\Users\minec\AppData\Local\arduino\sketches\CBAA8D2BDA3D583126B4F168E555FB8A/..\..\cores\69cc2d20a9c0859fc6838a3a84e0426a\core.a(new.cpp.o)
 .debug_abbrev  0x0000000000005261      0x4c1 C:\Users\minec\AppData\Local\arduino\sketches\CBAA8D2BDA3D583126B4F168E555FB8A/..\..\cores\69cc2d20a9c0859fc6838a3a84e0426a\core.a(nrfx_clock.c.o)
 .debug_abbrev  0x0000000000005722      0x4b9 C:\Users\minec\AppData\Local\arduino\sketches\CBAA8D2BDA3D583126B4F168E555FB8A/..\..\cores\69cc2d20a9c0859fc6838a3a84e0426a\core.a(nrfx_power.c.o)
 .debug_abbrev  0x0000000000005bdb      0x223 C:\Users\minec\AppData\Local\arduino\sketches\CBAA8D2BDA3D583126B4F168E555FB8A/..\..\cores\69cc2d20a9c0859fc6838a3a84e0426a\core.a(RingBuffer.cpp.o)
 .debug_abbrev  0x0000000000005dfe       0x44 C:\Users\minec\AppData\Local\arduino\sketches\CBAA8D2BDA3D583126B4F168E555FB8A/..\..\cores\69cc2d20a9c0859fc6838a3a84e0426a\core.a(port.c.o)
 .debug_abbrev  0x0000000000005e42      0x274 C:\Users\minec\AppData\Local\arduino\sketches\CBAA8D2BDA3D583126B4F168E555FB8A/..\..\cores\69cc2d20a9c0859fc6838a3a84e0426a\core.a(malloc.c.o)

.debug_aranges  0x0000000000000000      0xc50
 .debug_aranges
                0x0000000000000000       0x28 C:\Users\minec\AppData\Local\arduino\sketches\CBAA8D2BDA3D583126B4F168E555FB8A\sketch\BlinkLEDs.ino.cpp.o
 .debug_aranges
                0x0000000000000028       0x18 C:\Users\minec\AppData\Local\arduino\sketches\CBAA8D2BDA3D583126B4F168E555FB8A\core\variant.cpp.o
 .debug_aranges
                0x0000000000000040       0x38 C:\Users\minec\AppData\Local\arduino\sketches\CBAA8D2BDA3D583126B4F168E555FB8A/..\..\cores\69cc2d20a9c0859fc6838a3a84e0426a\core.a(delay.c.o)
 .debug_aranges
                0x0000000000000078      0x1f8 C:\Users\minec\AppData\Local\arduino\sketches\CBAA8D2BDA3D583126B4F168E555FB8A/..\..\cores\69cc2d20a9c0859fc6838a3a84e0426a\core.a(tasks.c.o)
 .debug_aranges
                0x0000000000000270       0xb0 C:\Users\minec\AppData\Local\arduino\sketches\CBAA8D2BDA3D583126B4F168E555FB8A/..\..\cores\69cc2d20a9c0859fc6838a3a84e0426a\core.a(timers.c.o)
 .debug_aranges
                0x0000000000000320       0x38 C:\Users\minec\AppData\Local\arduino\sketches\CBAA8D2BDA3D583126B4F168E555FB8A/..\..\cores\69cc2d20a9c0859fc6838a3a84e0426a\core.a(main.cpp.o)
 .debug_aranges
                0x0000000000000358       0x20 C:\Users\minec\AppData\Local\arduino\sketches\CBAA8D2BDA3D583126B4F168E555FB8A/..\..\cores\69cc2d20a9c0859fc6838a3a84e0426a\core.a(gcc_startup_nrf52810.S.o)
 .debug_aranges
                0x0000000000000378       0x30 C:\Users\minec\AppData\Local\arduino\sketches\CBAA8D2BDA3D583126B4F168E555FB8A/..\..\cores\69cc2d20a9c0859fc6838a3a84e0426a\core.a(system_nrf52810.c.o)
 .debug_aranges
                0x00000000000003a8       0x90 C:\Users\minec\AppData\Local\arduino\sketches\CBAA8D2BDA3D583126B4F168E555FB8A/..\..\cores\69cc2d20a9c0859fc6838a3a84e0426a\core.a(rtos.cpp.o)
 .debug_aranges
                0x0000000000000438       0x60 C:\Users\minec\AppData\Local\arduino\sketches\CBAA8D2BDA3D583126B4F168E555FB8A/..\..\cores\69cc2d20a9c0859fc6838a3a84e0426a\core.a(debug_utils.cpp.o)
 .debug_aranges
                0x0000000000000498       0x60 C:\Users\minec\AppData\Local\arduino\sketches\CBAA8D2BDA3D583126B4F168E555FB8A/..\..\cores\69cc2d20a9c0859fc6838a3a84e0426a\core.a(wiring.c.o)
 .debug_aranges
                0x00000000000004f8       0x38 C:\Users\minec\AppData\Local\arduino\sketches\CBAA8D2BDA3D583126B4F168E555FB8A/..\..\cores\69cc2d20a9c0859fc6838a3a84e0426a\core.a(wiring_digital.c.o)
 .debug_aranges
                0x0000000000000530      0x100 C:\Users\minec\AppData\Local\arduino\sketches\CBAA8D2BDA3D583126B4F168E555FB8A/..\..\cores\69cc2d20a9c0859fc6838a3a84e0426a\core.a(Print.cpp.o)
 .debug_aranges
                0x0000000000000630       0xb8 C:\Users\minec\AppData\Local\arduino\sketches\CBAA8D2BDA3D583126B4F168E555FB8A/..\..\cores\69cc2d20a9c0859fc6838a3a84e0426a\core.a(Uart.cpp.o)
 .debug_aranges
                0x00000000000006e8       0x60 C:\Users\minec\AppData\Local\arduino\sketches\CBAA8D2BDA3D583126B4F168E555FB8A/..\..\cores\69cc2d20a9c0859fc6838a3a84e0426a\core.a(heap_4.c.o)
 .debug_aranges
                0x0000000000000748       0x40 C:\Users\minec\AppData\Local\arduino\sketches\CBAA8D2BDA3D583126B4F168E555FB8A/..\..\cores\69cc2d20a9c0859fc6838a3a84e0426a\core.a(list.c.o)
 .debug_aranges
                0x0000000000000788       0x60 C:\Users\minec\AppData\Local\arduino\sketches\CBAA8D2BDA3D583126B4F168E555FB8A/..\..\cores\69cc2d20a9c0859fc6838a3a84e0426a\core.a(port_nrf52.c.o)
 .debug_aranges
                0x00000000000007e8       0x30 C:\Users\minec\AppData\Local\arduino\sketches\CBAA8D2BDA3D583126B4F168E555FB8A/..\..\cores\69cc2d20a9c0859fc6838a3a84e0426a\core.a(port_nrf52_systick.c.o)
 .debug_aranges
                0x0000000000000818       0xf8 C:\Users\minec\AppData\Local\arduino\sketches\CBAA8D2BDA3D583126B4F168E555FB8A/..\..\cores\69cc2d20a9c0859fc6838a3a84e0426a\core.a(queue.c.o)
 .debug_aranges
                0x0000000000000910       0x28 C:\Users\minec\AppData\Local\arduino\sketches\CBAA8D2BDA3D583126B4F168E555FB8A/..\..\cores\69cc2d20a9c0859fc6838a3a84e0426a\core.a(static_tasks.c.o)
 .debug_aranges
                0x0000000000000938       0xd0 C:\Users\minec\AppData\Local\arduino\sketches\CBAA8D2BDA3D583126B4F168E555FB8A/..\..\cores\69cc2d20a9c0859fc6838a3a84e0426a\core.a(printf.c.o)
 .debug_aranges
                0x0000000000000a08       0x28 C:\Users\minec\AppData\Local\arduino\sketches\CBAA8D2BDA3D583126B4F168E555FB8A/..\..\cores\69cc2d20a9c0859fc6838a3a84e0426a\core.a(putchar.cpp.o)
 .debug_aranges
                0x0000000000000a30       0x30 C:\Users\minec\AppData\Local\arduino\sketches\CBAA8D2BDA3D583126B4F168E555FB8A/..\..\cores\69cc2d20a9c0859fc6838a3a84e0426a\core.a(new.cpp.o)
 .debug_aranges
                0x0000000000000a60       0x68 C:\Users\minec\AppData\Local\arduino\sketches\CBAA8D2BDA3D583126B4F168E555FB8A/..\..\cores\69cc2d20a9c0859fc6838a3a84e0426a\core.a(nrfx_clock.c.o)
 .debug_aranges
                0x0000000000000ac8       0x80 C:\Users\minec\AppData\Local\arduino\sketches\CBAA8D2BDA3D583126B4F168E555FB8A/..\..\cores\69cc2d20a9c0859fc6838a3a84e0426a\core.a(nrfx_power.c.o)
 .debug_aranges
                0x0000000000000b48       0x58 C:\Users\minec\AppData\Local\arduino\sketches\CBAA8D2BDA3D583126B4F168E555FB8A/..\..\cores\69cc2d20a9c0859fc6838a3a84e0426a\core.a(RingBuffer.cpp.o)
 .debug_aranges
                0x0000000000000ba0       0x30 C:\Users\minec\AppData\Local\arduino\sketches\CBAA8D2BDA3D583126B4F168E555FB8A/..\..\cores\69cc2d20a9c0859fc6838a3a84e0426a\core.a(port.c.o)
 .debug_aranges
                0x0000000000000bd0       0x80 C:\Users\minec\AppData\Local\arduino\sketches\CBAA8D2BDA3D583126B4F168E555FB8A/..\..\cores\69cc2d20a9c0859fc6838a3a84e0426a\core.a(malloc.c.o)

.debug_ranges   0x0000000000000000     0x1950
 .debug_ranges  0x0000000000000000       0x18 C:\Users\minec\AppData\Local\arduino\sketches\CBAA8D2BDA3D583126B4F168E555FB8A\sketch\BlinkLEDs.ino.cpp.o
 .debug_ranges  0x0000000000000018       0x28 C:\Users\minec\AppData\Local\arduino\sketches\CBAA8D2BDA3D583126B4F168E555FB8A/..\..\cores\69cc2d20a9c0859fc6838a3a84e0426a\core.a(delay.c.o)
 .debug_ranges  0x0000000000000040      0x368 C:\Users\minec\AppData\Local\arduino\sketches\CBAA8D2BDA3D583126B4F168E555FB8A/..\..\cores\69cc2d20a9c0859fc6838a3a84e0426a\core.a(tasks.c.o)
 .debug_ranges  0x00000000000003a8      0x190 C:\Users\minec\AppData\Local\arduino\sketches\CBAA8D2BDA3D583126B4F168E555FB8A/..\..\cores\69cc2d20a9c0859fc6838a3a84e0426a\core.a(timers.c.o)
 .debug_ranges  0x0000000000000538       0x28 C:\Users\minec\AppData\Local\arduino\sketches\CBAA8D2BDA3D583126B4F168E555FB8A/..\..\cores\69cc2d20a9c0859fc6838a3a84e0426a\core.a(main.cpp.o)
 .debug_ranges  0x0000000000000560       0x20 C:\Users\minec\AppData\Local\arduino\sketches\CBAA8D2BDA3D583126B4F168E555FB8A/..\..\cores\69cc2d20a9c0859fc6838a3a84e0426a\core.a(system_nrf52810.c.o)
 .debug_ranges  0x0000000000000580       0x98 C:\Users\minec\AppData\Local\arduino\sketches\CBAA8D2BDA3D583126B4F168E555FB8A/..\..\cores\69cc2d20a9c0859fc6838a3a84e0426a\core.a(rtos.cpp.o)
 .debug_ranges  0x0000000000000618       0xe0 C:\Users\minec\AppData\Local\arduino\sketches\CBAA8D2BDA3D583126B4F168E555FB8A/..\..\cores\69cc2d20a9c0859fc6838a3a84e0426a\core.a(debug_utils.cpp.o)
 .debug_ranges  0x00000000000006f8       0xe0 C:\Users\minec\AppData\Local\arduino\sketches\CBAA8D2BDA3D583126B4F168E555FB8A/..\..\cores\69cc2d20a9c0859fc6838a3a84e0426a\core.a(wiring.c.o)
 .debug_ranges  0x00000000000007d8      0x1f8 C:\Users\minec\AppData\Local\arduino\sketches\CBAA8D2BDA3D583126B4F168E555FB8A/..\..\cores\69cc2d20a9c0859fc6838a3a84e0426a\core.a(wiring_digital.c.o)
 .debug_ranges  0x00000000000009d0      0x260 C:\Users\minec\AppData\Local\arduino\sketches\CBAA8D2BDA3D583126B4F168E555FB8A/..\..\cores\69cc2d20a9c0859fc6838a3a84e0426a\core.a(Print.cpp.o)
 .debug_ranges  0x0000000000000c30      0x130 C:\Users\minec\AppData\Local\arduino\sketches\CBAA8D2BDA3D583126B4F168E555FB8A/..\..\cores\69cc2d20a9c0859fc6838a3a84e0426a\core.a(Uart.cpp.o)
 .debug_ranges  0x0000000000000d60       0x50 C:\Users\minec\AppData\Local\arduino\sketches\CBAA8D2BDA3D583126B4F168E555FB8A/..\..\cores\69cc2d20a9c0859fc6838a3a84e0426a\core.a(heap_4.c.o)
 .debug_ranges  0x0000000000000db0       0x30 C:\Users\minec\AppData\Local\arduino\sketches\CBAA8D2BDA3D583126B4F168E555FB8A/..\..\cores\69cc2d20a9c0859fc6838a3a84e0426a\core.a(list.c.o)
 .debug_ranges  0x0000000000000de0       0x68 C:\Users\minec\AppData\Local\arduino\sketches\CBAA8D2BDA3D583126B4F168E555FB8A/..\..\cores\69cc2d20a9c0859fc6838a3a84e0426a\core.a(port_nrf52.c.o)
 .debug_ranges  0x0000000000000e48       0x98 C:\Users\minec\AppData\Local\arduino\sketches\CBAA8D2BDA3D583126B4F168E555FB8A/..\..\cores\69cc2d20a9c0859fc6838a3a84e0426a\core.a(port_nrf52_systick.c.o)
 .debug_ranges  0x0000000000000ee0      0x2c8 C:\Users\minec\AppData\Local\arduino\sketches\CBAA8D2BDA3D583126B4F168E555FB8A/..\..\cores\69cc2d20a9c0859fc6838a3a84e0426a\core.a(queue.c.o)
 .debug_ranges  0x00000000000011a8       0x18 C:\Users\minec\AppData\Local\arduino\sketches\CBAA8D2BDA3D583126B4F168E555FB8A/..\..\cores\69cc2d20a9c0859fc6838a3a84e0426a\core.a(static_tasks.c.o)
 .debug_ranges  0x00000000000011c0      0x3b0 C:\Users\minec\AppData\Local\arduino\sketches\CBAA8D2BDA3D583126B4F168E555FB8A/..\..\cores\69cc2d20a9c0859fc6838a3a84e0426a\core.a(printf.c.o)
 .debug_ranges  0x0000000000001570       0x38 C:\Users\minec\AppData\Local\arduino\sketches\CBAA8D2BDA3D583126B4F168E555FB8A/..\..\cores\69cc2d20a9c0859fc6838a3a84e0426a\core.a(putchar.cpp.o)
 .debug_ranges  0x00000000000015a8       0x20 C:\Users\minec\AppData\Local\arduino\sketches\CBAA8D2BDA3D583126B4F168E555FB8A/..\..\cores\69cc2d20a9c0859fc6838a3a84e0426a\core.a(new.cpp.o)
 .debug_ranges  0x00000000000015c8      0x150 C:\Users\minec\AppData\Local\arduino\sketches\CBAA8D2BDA3D583126B4F168E555FB8A/..\..\cores\69cc2d20a9c0859fc6838a3a84e0426a\core.a(nrfx_clock.c.o)
 .debug_ranges  0x0000000000001718      0x128 C:\Users\minec\AppData\Local\arduino\sketches\CBAA8D2BDA3D583126B4F168E555FB8A/..\..\cores\69cc2d20a9c0859fc6838a3a84e0426a\core.a(nrfx_power.c.o)
 .debug_ranges  0x0000000000001840       0x80 C:\Users\minec\AppData\Local\arduino\sketches\CBAA8D2BDA3D583126B4F168E555FB8A/..\..\cores\69cc2d20a9c0859fc6838a3a84e0426a\core.a(RingBuffer.cpp.o)
 .debug_ranges  0x00000000000018c0       0x20 C:\Users\minec\AppData\Local\arduino\sketches\CBAA8D2BDA3D583126B4F168E555FB8A/..\..\cores\69cc2d20a9c0859fc6838a3a84e0426a\core.a(port.c.o)
 .debug_ranges  0x00000000000018e0       0x70 C:\Users\minec\AppData\Local\arduino\sketches\CBAA8D2BDA3D583126B4F168E555FB8A/..\..\cores\69cc2d20a9c0859fc6838a3a84e0426a\core.a(malloc.c.o)

.debug_line     0x0000000000000000     0xf72a
 .debug_line    0x0000000000000000      0x71f C:\Users\minec\AppData\Local\arduino\sketches\CBAA8D2BDA3D583126B4F168E555FB8A\sketch\BlinkLEDs.ino.cpp.o
 .debug_line    0x000000000000071f      0x22c C:\Users\minec\AppData\Local\arduino\sketches\CBAA8D2BDA3D583126B4F168E555FB8A\core\variant.cpp.o
 .debug_line    0x000000000000094b      0x3c6 C:\Users\minec\AppData\Local\arduino\sketches\CBAA8D2BDA3D583126B4F168E555FB8A/..\..\cores\69cc2d20a9c0859fc6838a3a84e0426a\core.a(delay.c.o)
 .debug_line    0x0000000000000d11     0x22b7 C:\Users\minec\AppData\Local\arduino\sketches\CBAA8D2BDA3D583126B4F168E555FB8A/..\..\cores\69cc2d20a9c0859fc6838a3a84e0426a\core.a(tasks.c.o)
 .debug_line    0x0000000000002fc8      0xb63 C:\Users\minec\AppData\Local\arduino\sketches\CBAA8D2BDA3D583126B4F168E555FB8A/..\..\cores\69cc2d20a9c0859fc6838a3a84e0426a\core.a(timers.c.o)
 .debug_line    0x0000000000003b2b      0x8c5 C:\Users\minec\AppData\Local\arduino\sketches\CBAA8D2BDA3D583126B4F168E555FB8A/..\..\cores\69cc2d20a9c0859fc6838a3a84e0426a\core.a(main.cpp.o)
 .debug_line    0x00000000000043f0       0xf7 C:\Users\minec\AppData\Local\arduino\sketches\CBAA8D2BDA3D583126B4F168E555FB8A/..\..\cores\69cc2d20a9c0859fc6838a3a84e0426a\core.a(gcc_startup_nrf52810.S.o)
 .debug_line    0x00000000000044e7      0x405 C:\Users\minec\AppData\Local\arduino\sketches\CBAA8D2BDA3D583126B4F168E555FB8A/..\..\cores\69cc2d20a9c0859fc6838a3a84e0426a\core.a(system_nrf52810.c.o)
 .debug_line    0x00000000000048ec      0xabf C:\Users\minec\AppData\Local\arduino\sketches\CBAA8D2BDA3D583126B4F168E555FB8A/..\..\cores\69cc2d20a9c0859fc6838a3a84e0426a\core.a(rtos.cpp.o)
 .debug_line    0x00000000000053ab      0xdcd C:\Users\minec\AppData\Local\arduino\sketches\CBAA8D2BDA3D583126B4F168E555FB8A/..\..\cores\69cc2d20a9c0859fc6838a3a84e0426a\core.a(debug_utils.cpp.o)
 .debug_line    0x0000000000006178      0x8d1 C:\Users\minec\AppData\Local\arduino\sketches\CBAA8D2BDA3D583126B4F168E555FB8A/..\..\cores\69cc2d20a9c0859fc6838a3a84e0426a\core.a(wiring.c.o)
 .debug_line    0x0000000000006a49      0x5df C:\Users\minec\AppData\Local\arduino\sketches\CBAA8D2BDA3D583126B4F168E555FB8A/..\..\cores\69cc2d20a9c0859fc6838a3a84e0426a\core.a(wiring_digital.c.o)
 .debug_line    0x0000000000007028      0xe22 C:\Users\minec\AppData\Local\arduino\sketches\CBAA8D2BDA3D583126B4F168E555FB8A/..\..\cores\69cc2d20a9c0859fc6838a3a84e0426a\core.a(Print.cpp.o)
 .debug_line    0x0000000000007e4a      0xded C:\Users\minec\AppData\Local\arduino\sketches\CBAA8D2BDA3D583126B4F168E555FB8A/..\..\cores\69cc2d20a9c0859fc6838a3a84e0426a\core.a(Uart.cpp.o)
 .debug_line    0x0000000000008c37      0x70d C:\Users\minec\AppData\Local\arduino\sketches\CBAA8D2BDA3D583126B4F168E555FB8A/..\..\cores\69cc2d20a9c0859fc6838a3a84e0426a\core.a(heap_4.c.o)
 .debug_line    0x0000000000009344      0x37a C:\Users\minec\AppData\Local\arduino\sketches\CBAA8D2BDA3D583126B4F168E555FB8A/..\..\cores\69cc2d20a9c0859fc6838a3a84e0426a\core.a(list.c.o)
 .debug_line    0x00000000000096be      0x470 C:\Users\minec\AppData\Local\arduino\sketches\CBAA8D2BDA3D583126B4F168E555FB8A/..\..\cores\69cc2d20a9c0859fc6838a3a84e0426a\core.a(port_nrf52.c.o)
 .debug_line    0x0000000000009b2e      0x74f C:\Users\minec\AppData\Local\arduino\sketches\CBAA8D2BDA3D583126B4F168E555FB8A/..\..\cores\69cc2d20a9c0859fc6838a3a84e0426a\core.a(port_nrf52_systick.c.o)
 .debug_line    0x000000000000a27d     0x148a C:\Users\minec\AppData\Local\arduino\sketches\CBAA8D2BDA3D583126B4F168E555FB8A/..\..\cores\69cc2d20a9c0859fc6838a3a84e0426a\core.a(queue.c.o)
 .debug_line    0x000000000000b707      0x233 C:\Users\minec\AppData\Local\arduino\sketches\CBAA8D2BDA3D583126B4F168E555FB8A/..\..\cores\69cc2d20a9c0859fc6838a3a84e0426a\core.a(static_tasks.c.o)
 .debug_line    0x000000000000b93a     0x16e1 C:\Users\minec\AppData\Local\arduino\sketches\CBAA8D2BDA3D583126B4F168E555FB8A/..\..\cores\69cc2d20a9c0859fc6838a3a84e0426a\core.a(printf.c.o)
 .debug_line    0x000000000000d01b      0x86f C:\Users\minec\AppData\Local\arduino\sketches\CBAA8D2BDA3D583126B4F168E555FB8A/..\..\cores\69cc2d20a9c0859fc6838a3a84e0426a\core.a(putchar.cpp.o)
 .debug_line    0x000000000000d88a      0x1da C:\Users\minec\AppData\Local\arduino\sketches\CBAA8D2BDA3D583126B4F168E555FB8A/..\..\cores\69cc2d20a9c0859fc6838a3a84e0426a\core.a(new.cpp.o)
 .debug_line    0x000000000000da64      0xa34 C:\Users\minec\AppData\Local\arduino\sketches\CBAA8D2BDA3D583126B4F168E555FB8A/..\..\cores\69cc2d20a9c0859fc6838a3a84e0426a\core.a(nrfx_clock.c.o)
 .debug_line    0x000000000000e498      0xa71 C:\Users\minec\AppData\Local\arduino\sketches\CBAA8D2BDA3D583126B4F168E555FB8A/..\..\cores\69cc2d20a9c0859fc6838a3a84e0426a\core.a(nrfx_power.c.o)
 .debug_line    0x000000000000ef09      0x32d C:\Users\minec\AppData\Local\arduino\sketches\CBAA8D2BDA3D583126B4F168E555FB8A/..\..\cores\69cc2d20a9c0859fc6838a3a84e0426a\core.a(RingBuffer.cpp.o)
 .debug_line    0x000000000000f236       0xe4 C:\Users\minec\AppData\Local\arduino\sketches\CBAA8D2BDA3D583126B4F168E555FB8A/..\..\cores\69cc2d20a9c0859fc6838a3a84e0426a\core.a(port.c.o)
 .debug_line    0x000000000000f31a      0x410 C:\Users\minec\AppData\Local\arduino\sketches\CBAA8D2BDA3D583126B4F168E555FB8A/..\..\cores\69cc2d20a9c0859fc6838a3a84e0426a\core.a(malloc.c.o)

.debug_str      0x0000000000000000     0x888a
 .debug_str     0x0000000000000000     0x118f C:\Users\minec\AppData\Local\arduino\sketches\CBAA8D2BDA3D583126B4F168E555FB8A\sketch\BlinkLEDs.ino.cpp.o
                                       0x1261 (size before relaxing)
 .debug_str     0x000000000000118f       0x8f C:\Users\minec\AppData\Local\arduino\sketches\CBAA8D2BDA3D583126B4F168E555FB8A\core\variant.cpp.o
                                        0x273 (size before relaxing)
 .debug_str     0x000000000000121e      0x1c1 C:\Users\minec\AppData\Local\arduino\sketches\CBAA8D2BDA3D583126B4F168E555FB8A/..\..\cores\69cc2d20a9c0859fc6838a3a84e0426a\core.a(delay.c.o)
                                        0x2d4 (size before relaxing)
 .debug_str     0x00000000000013df     0x1160 C:\Users\minec\AppData\Local\arduino\sketches\CBAA8D2BDA3D583126B4F168E555FB8A/..\..\cores\69cc2d20a9c0859fc6838a3a84e0426a\core.a(tasks.c.o)
                                       0x1477 (size before relaxing)
 .debug_str     0x000000000000253f      0x6f7 C:\Users\minec\AppData\Local\arduino\sketches\CBAA8D2BDA3D583126B4F168E555FB8A/..\..\cores\69cc2d20a9c0859fc6838a3a84e0426a\core.a(timers.c.o)
                                        0xc6c (size before relaxing)
 .debug_str     0x0000000000002c36      0x13a C:\Users\minec\AppData\Local\arduino\sketches\CBAA8D2BDA3D583126B4F168E555FB8A/..\..\cores\69cc2d20a9c0859fc6838a3a84e0426a\core.a(main.cpp.o)
                                       0x14b9 (size before relaxing)
 .debug_str     0x0000000000002d70       0x94 C:\Users\minec\AppData\Local\arduino\sketches\CBAA8D2BDA3D583126B4F168E555FB8A/..\..\cores\69cc2d20a9c0859fc6838a3a84e0426a\core.a(gcc_startup_nrf52810.S.o)
                                         0xc6 (size before relaxing)
 .debug_str     0x0000000000002e04      0x48d C:\Users\minec\AppData\Local\arduino\sketches\CBAA8D2BDA3D583126B4F168E555FB8A/..\..\cores\69cc2d20a9c0859fc6838a3a84e0426a\core.a(system_nrf52810.c.o)
                                        0x657 (size before relaxing)
 .debug_str     0x0000000000003291      0x425 C:\Users\minec\AppData\Local\arduino\sketches\CBAA8D2BDA3D583126B4F168E555FB8A/..\..\cores\69cc2d20a9c0859fc6838a3a84e0426a\core.a(rtos.cpp.o)
                                       0x1809 (size before relaxing)
 .debug_str     0x00000000000036b6      0x250 C:\Users\minec\AppData\Local\arduino\sketches\CBAA8D2BDA3D583126B4F168E555FB8A/..\..\cores\69cc2d20a9c0859fc6838a3a84e0426a\core.a(debug_utils.cpp.o)
                                       0x15ff (size before relaxing)
 .debug_str     0x0000000000003906      0x516 C:\Users\minec\AppData\Local\arduino\sketches\CBAA8D2BDA3D583126B4F168E555FB8A/..\..\cores\69cc2d20a9c0859fc6838a3a84e0426a\core.a(wiring.c.o)
                                        0x9e5 (size before relaxing)
 .debug_str     0x0000000000003e1c      0x42a C:\Users\minec\AppData\Local\arduino\sketches\CBAA8D2BDA3D583126B4F168E555FB8A/..\..\cores\69cc2d20a9c0859fc6838a3a84e0426a\core.a(wiring_digital.c.o)
                                        0x62e (size before relaxing)
 .debug_str     0x0000000000004246      0xf6e C:\Users\minec\AppData\Local\arduino\sketches\CBAA8D2BDA3D583126B4F168E555FB8A/..\..\cores\69cc2d20a9c0859fc6838a3a84e0426a\core.a(Print.cpp.o)
                                       0x2250 (size before relaxing)
 .debug_str     0x00000000000051b4      0xfcd C:\Users\minec\AppData\Local\arduino\sketches\CBAA8D2BDA3D583126B4F168E555FB8A/..\..\cores\69cc2d20a9c0859fc6838a3a84e0426a\core.a(Uart.cpp.o)
                                       0x32f7 (size before relaxing)
 .debug_str     0x0000000000006181      0x32f C:\Users\minec\AppData\Local\arduino\sketches\CBAA8D2BDA3D583126B4F168E555FB8A/..\..\cores\69cc2d20a9c0859fc6838a3a84e0426a\core.a(heap_4.c.o)
                                        0x5aa (size before relaxing)
 .debug_str     0x00000000000064b0       0xae C:\Users\minec\AppData\Local\arduino\sketches\CBAA8D2BDA3D583126B4F168E555FB8A/..\..\cores\69cc2d20a9c0859fc6838a3a84e0426a\core.a(list.c.o)
                                        0x340 (size before relaxing)
 .debug_str     0x000000000000655e      0x130 C:\Users\minec\AppData\Local\arduino\sketches\CBAA8D2BDA3D583126B4F168E555FB8A/..\..\cores\69cc2d20a9c0859fc6838a3a84e0426a\core.a(port_nrf52.c.o)
                                        0x68a (size before relaxing)
 .debug_str     0x000000000000668e      0x3c4 C:\Users\minec\AppData\Local\arduino\sketches\CBAA8D2BDA3D583126B4F168E555FB8A/..\..\cores\69cc2d20a9c0859fc6838a3a84e0426a\core.a(port_nrf52_systick.c.o)
                                        0x9db (size before relaxing)
 .debug_str     0x0000000000006a52      0x51d C:\Users\minec\AppData\Local\arduino\sketches\CBAA8D2BDA3D583126B4F168E555FB8A/..\..\cores\69cc2d20a9c0859fc6838a3a84e0426a\core.a(queue.c.o)
                                        0xc19 (size before relaxing)
 .debug_str     0x0000000000006f6f      0x13a C:\Users\minec\AppData\Local\arduino\sketches\CBAA8D2BDA3D583126B4F168E555FB8A/..\..\cores\69cc2d20a9c0859fc6838a3a84e0426a\core.a(static_tasks.c.o)
                                        0x3f0 (size before relaxing)
 .debug_str     0x00000000000070a9      0x4bf C:\Users\minec\AppData\Local\arduino\sketches\CBAA8D2BDA3D583126B4F168E555FB8A/..\..\cores\69cc2d20a9c0859fc6838a3a84e0426a\core.a(printf.c.o)
                                        0x7e7 (size before relaxing)
 .debug_str     0x0000000000007568       0xa7 C:\Users\minec\AppData\Local\arduino\sketches\CBAA8D2BDA3D583126B4F168E555FB8A/..\..\cores\69cc2d20a9c0859fc6838a3a84e0426a\core.a(putchar.cpp.o)
                                       0x1356 (size before relaxing)
 .debug_str     0x000000000000760f       0xbb C:\Users\minec\AppData\Local\arduino\sketches\CBAA8D2BDA3D583126B4F168E555FB8A/..\..\cores\69cc2d20a9c0859fc6838a3a84e0426a\core.a(new.cpp.o)
                                        0x2b5 (size before relaxing)
 .debug_str     0x00000000000076ca      0x68d C:\Users\minec\AppData\Local\arduino\sketches\CBAA8D2BDA3D583126B4F168E555FB8A/..\..\cores\69cc2d20a9c0859fc6838a3a84e0426a\core.a(nrfx_clock.c.o)
                                        0xe59 (size before relaxing)
 .debug_str     0x0000000000007d57      0x55a C:\Users\minec\AppData\Local\arduino\sketches\CBAA8D2BDA3D583126B4F168E555FB8A/..\..\cores\69cc2d20a9c0859fc6838a3a84e0426a\core.a(nrfx_power.c.o)
                                       0x12ba (size before relaxing)
 .debug_str     0x00000000000082b1       0x8a C:\Users\minec\AppData\Local\arduino\sketches\CBAA8D2BDA3D583126B4F168E555FB8A/..\..\cores\69cc2d20a9c0859fc6838a3a84e0426a\core.a(RingBuffer.cpp.o)
                                        0x3cf (size before relaxing)
 .debug_str     0x000000000000833b       0x8c C:\Users\minec\AppData\Local\arduino\sketches\CBAA8D2BDA3D583126B4F168E555FB8A/..\..\cores\69cc2d20a9c0859fc6838a3a84e0426a\core.a(port.c.o)
                                        0x21c (size before relaxing)
 .debug_str     0x00000000000083c7      0x4c3 C:\Users\minec\AppData\Local\arduino\sketches\CBAA8D2BDA3D583126B4F168E555FB8A/..\..\cores\69cc2d20a9c0859fc6838a3a84e0426a\core.a(malloc.c.o)
                                        0x6f7 (size before relaxing)

.debug_frame    0x0000000000000000     0x29f8
 .debug_frame   0x0000000000000000       0x48 C:\Users\minec\AppData\Local\arduino\sketches\CBAA8D2BDA3D583126B4F168E555FB8A\sketch\BlinkLEDs.ino.cpp.o
 .debug_frame   0x0000000000000048       0x60 C:\Users\minec\AppData\Local\arduino\sketches\CBAA8D2BDA3D583126B4F168E555FB8A/..\..\cores\69cc2d20a9c0859fc6838a3a84e0426a\core.a(delay.c.o)
 .debug_frame   0x00000000000000a8      0x680 C:\Users\minec\AppData\Local\arduino\sketches\CBAA8D2BDA3D583126B4F168E555FB8A/..\..\cores\69cc2d20a9c0859fc6838a3a84e0426a\core.a(tasks.c.o)
 .debug_frame   0x0000000000000728      0x234 C:\Users\minec\AppData\Local\arduino\sketches\CBAA8D2BDA3D583126B4F168E555FB8A/..\..\cores\69cc2d20a9c0859fc6838a3a84e0426a\core.a(timers.c.o)
 .debug_frame   0x000000000000095c       0x60 C:\Users\minec\AppData\Local\arduino\sketches\CBAA8D2BDA3D583126B4F168E555FB8A/..\..\cores\69cc2d20a9c0859fc6838a3a84e0426a\core.a(main.cpp.o)
 .debug_frame   0x00000000000009bc       0x48 C:\Users\minec\AppData\Local\arduino\sketches\CBAA8D2BDA3D583126B4F168E555FB8A/..\..\cores\69cc2d20a9c0859fc6838a3a84e0426a\core.a(system_nrf52810.c.o)
 .debug_frame   0x0000000000000a04      0x15c C:\Users\minec\AppData\Local\arduino\sketches\CBAA8D2BDA3D583126B4F168E555FB8A/..\..\cores\69cc2d20a9c0859fc6838a3a84e0426a\core.a(rtos.cpp.o)
 .debug_frame   0x0000000000000b60       0xf0 C:\Users\minec\AppData\Local\arduino\sketches\CBAA8D2BDA3D583126B4F168E555FB8A/..\..\cores\69cc2d20a9c0859fc6838a3a84e0426a\core.a(debug_utils.cpp.o)
 .debug_frame   0x0000000000000c50       0xcc C:\Users\minec\AppData\Local\arduino\sketches\CBAA8D2BDA3D583126B4F168E555FB8A/..\..\cores\69cc2d20a9c0859fc6838a3a84e0426a\core.a(wiring.c.o)
 .debug_frame   0x0000000000000d1c       0x50 C:\Users\minec\AppData\Local\arduino\sketches\CBAA8D2BDA3D583126B4F168E555FB8A/..\..\cores\69cc2d20a9c0859fc6838a3a84e0426a\core.a(wiring_digital.c.o)
 .debug_frame   0x0000000000000d6c      0x340 C:\Users\minec\AppData\Local\arduino\sketches\CBAA8D2BDA3D583126B4F168E555FB8A/..\..\cores\69cc2d20a9c0859fc6838a3a84e0426a\core.a(Print.cpp.o)
 .debug_frame   0x00000000000010ac      0x1ac C:\Users\minec\AppData\Local\arduino\sketches\CBAA8D2BDA3D583126B4F168E555FB8A/..\..\cores\69cc2d20a9c0859fc6838a3a84e0426a\core.a(Uart.cpp.o)
 .debug_frame   0x0000000000001258       0xfc C:\Users\minec\AppData\Local\arduino\sketches\CBAA8D2BDA3D583126B4F168E555FB8A/..\..\cores\69cc2d20a9c0859fc6838a3a84e0426a\core.a(heap_4.c.o)
 .debug_frame   0x0000000000001354       0x6c C:\Users\minec\AppData\Local\arduino\sketches\CBAA8D2BDA3D583126B4F168E555FB8A/..\..\cores\69cc2d20a9c0859fc6838a3a84e0426a\core.a(list.c.o)
 .debug_frame   0x00000000000013c0       0xa8 C:\Users\minec\AppData\Local\arduino\sketches\CBAA8D2BDA3D583126B4F168E555FB8A/..\..\cores\69cc2d20a9c0859fc6838a3a84e0426a\core.a(port_nrf52.c.o)
 .debug_frame   0x0000000000001468       0x6c C:\Users\minec\AppData\Local\arduino\sketches\CBAA8D2BDA3D583126B4F168E555FB8A/..\..\cores\69cc2d20a9c0859fc6838a3a84e0426a\core.a(port_nrf52_systick.c.o)
 .debug_frame   0x00000000000014d4      0x34c C:\Users\minec\AppData\Local\arduino\sketches\CBAA8D2BDA3D583126B4F168E555FB8A/..\..\cores\69cc2d20a9c0859fc6838a3a84e0426a\core.a(queue.c.o)
 .debug_frame   0x0000000000001820       0x30 C:\Users\minec\AppData\Local\arduino\sketches\CBAA8D2BDA3D583126B4F168E555FB8A/..\..\cores\69cc2d20a9c0859fc6838a3a84e0426a\core.a(static_tasks.c.o)
 .debug_frame   0x0000000000001850      0x380 C:\Users\minec\AppData\Local\arduino\sketches\CBAA8D2BDA3D583126B4F168E555FB8A/..\..\cores\69cc2d20a9c0859fc6838a3a84e0426a\core.a(printf.c.o)
 .debug_frame   0x0000000000001bd0       0x44 C:\Users\minec\AppData\Local\arduino\sketches\CBAA8D2BDA3D583126B4F168E555FB8A/..\..\cores\69cc2d20a9c0859fc6838a3a84e0426a\core.a(putchar.cpp.o)
 .debug_frame   0x0000000000001c14       0x70 C:\Users\minec\AppData\Local\arduino\sketches\CBAA8D2BDA3D583126B4F168E555FB8A/..\..\cores\69cc2d20a9c0859fc6838a3a84e0426a\core.a(new.cpp.o)
 .debug_frame   0x0000000000001c84       0xe8 C:\Users\minec\AppData\Local\arduino\sketches\CBAA8D2BDA3D583126B4F168E555FB8A/..\..\cores\69cc2d20a9c0859fc6838a3a84e0426a\core.a(nrfx_clock.c.o)
 .debug_frame   0x0000000000001d6c      0x10c C:\Users\minec\AppData\Local\arduino\sketches\CBAA8D2BDA3D583126B4F168E555FB8A/..\..\cores\69cc2d20a9c0859fc6838a3a84e0426a\core.a(nrfx_power.c.o)
 .debug_frame   0x0000000000001e78       0xa0 C:\Users\minec\AppData\Local\arduino\sketches\CBAA8D2BDA3D583126B4F168E555FB8A/..\..\cores\69cc2d20a9c0859fc6838a3a84e0426a\core.a(RingBuffer.cpp.o)
 .debug_frame   0x0000000000001f18       0x40 C:\Users\minec\AppData\Local\arduino\sketches\CBAA8D2BDA3D583126B4F168E555FB8A/..\..\cores\69cc2d20a9c0859fc6838a3a84e0426a\core.a(port.c.o)
 .debug_frame   0x0000000000001f58       0xe8 C:\Users\minec\AppData\Local\arduino\sketches\CBAA8D2BDA3D583126B4F168E555FB8A/..\..\cores\69cc2d20a9c0859fc6838a3a84e0426a\core.a(malloc.c.o)
 .debug_frame   0x0000000000002040       0x20 c:/users/minec/appdata/local/arduino15/packages/n-able-arduino/tools/gcc-arm-none-eabi/10.3.1-2.1/bin/../lib/gcc/arm-none-eabi/10.3.1/../../../../arm-none-eabi/lib/thumb/v7e-m/nofp\libstdc++_nano.a(atexit_arm.o)
 .debug_frame   0x0000000000002060       0xac c:/users/minec/appdata/local/arduino15/packages/n-able-arduino/tools/gcc-arm-none-eabi/10.3.1-2.1/bin/../lib/gcc/arm-none-eabi/10.3.1/thumb/v7e-m/nofp\libgcc.a(_arm_addsubdf3.o)
 .debug_frame   0x000000000000210c       0x50 c:/users/minec/appdata/local/arduino15/packages/n-able-arduino/tools/gcc-arm-none-eabi/10.3.1-2.1/bin/../lib/gcc/arm-none-eabi/10.3.1/thumb/v7e-m/nofp\libgcc.a(_arm_muldivdf3.o)
 .debug_frame   0x000000000000215c       0xc4 c:/users/minec/appdata/local/arduino15/packages/n-able-arduino/tools/gcc-arm-none-eabi/10.3.1-2.1/bin/../lib/gcc/arm-none-eabi/10.3.1/thumb/v7e-m/nofp\libgcc.a(_arm_cmpdf2.o)
 .debug_frame   0x0000000000002220       0x24 c:/users/minec/appdata/local/arduino15/packages/n-able-arduino/tools/gcc-arm-none-eabi/10.3.1-2.1/bin/../lib/gcc/arm-none-eabi/10.3.1/thumb/v7e-m/nofp\libgcc.a(_arm_fixdfsi.o)
 .debug_frame   0x0000000000002244       0x24 c:/users/minec/appdata/local/arduino15/packages/n-able-arduino/tools/gcc-arm-none-eabi/10.3.1-2.1/bin/../lib/gcc/arm-none-eabi/10.3.1/thumb/v7e-m/nofp\libgcc.a(_arm_fixunsdfsi.o)
 .debug_frame   0x0000000000002268       0x44 c:/users/minec/appdata/local/arduino15/packages/n-able-arduino/tools/gcc-arm-none-eabi/10.3.1-2.1/bin/../lib/gcc/arm-none-eabi/10.3.1/thumb/v7e-m/nofp\libgcc.a(_aeabi_ldivmod.o)
 .debug_frame   0x00000000000022ac       0x2c c:/users/minec/appdata/local/arduino15/packages/n-able-arduino/tools/gcc-arm-none-eabi/10.3.1-2.1/bin/../lib/gcc/arm-none-eabi/10.3.1/thumb/v7e-m/nofp\libgcc.a(_aeabi_uldivmod.o)
 .debug_frame   0x00000000000022d8       0x38 c:/users/minec/appdata/local/arduino15/packages/n-able-arduino/tools/gcc-arm-none-eabi/10.3.1-2.1/bin/../lib/gcc/arm-none-eabi/10.3.1/thumb/v7e-m/nofp\libgcc.a(_fixdfdi.o)
 .debug_frame   0x0000000000002310       0x2c c:/users/minec/appdata/local/arduino15/packages/n-able-arduino/tools/gcc-arm-none-eabi/10.3.1-2.1/bin/../lib/gcc/arm-none-eabi/10.3.1/thumb/v7e-m/nofp\libgcc.a(_fixunsdfdi.o)
 .debug_frame   0x000000000000233c       0x34 c:/users/minec/appdata/local/arduino15/packages/n-able-arduino/tools/gcc-arm-none-eabi/10.3.1-2.1/bin/../lib/gcc/arm-none-eabi/10.3.1/thumb/v7e-m/nofp\libgcc.a(_udivmoddi4.o)
 .debug_frame   0x0000000000002370      0x2d4 c:/users/minec/appdata/local/arduino15/packages/n-able-arduino/tools/gcc-arm-none-eabi/10.3.1-2.1/bin/../lib/gcc/arm-none-eabi/10.3.1/thumb/v7e-m/nofp\libgcc.a(unwind-arm.o)
 .debug_frame   0x0000000000002644      0x104 c:/users/minec/appdata/local/arduino15/packages/n-able-arduino/tools/gcc-arm-none-eabi/10.3.1-2.1/bin/../lib/gcc/arm-none-eabi/10.3.1/thumb/v7e-m/nofp\libgcc.a(pr-support.o)
 .debug_frame   0x0000000000002748       0x28 c:/users/minec/appdata/local/arduino15/packages/n-able-arduino/tools/gcc-arm-none-eabi/10.3.1-2.1/bin/../lib/gcc/arm-none-eabi/10.3.1/../../../../arm-none-eabi/lib/thumb/v7e-m/nofp\libc_nano.a(lib_a-abort.o)
 .debug_frame   0x0000000000002770       0x28 c:/users/minec/appdata/local/arduino15/packages/n-able-arduino/tools/gcc-arm-none-eabi/10.3.1-2.1/bin/../lib/gcc/arm-none-eabi/10.3.1/../../../../arm-none-eabi/lib/thumb/v7e-m/nofp\libc_nano.a(lib_a-cxa_atexit.o)
 .debug_frame   0x0000000000002798       0x28 c:/users/minec/appdata/local/arduino15/packages/n-able-arduino/tools/gcc-arm-none-eabi/10.3.1-2.1/bin/../lib/gcc/arm-none-eabi/10.3.1/../../../../arm-none-eabi/lib/thumb/v7e-m/nofp\libc_nano.a(lib_a-exit.o)
 .debug_frame   0x00000000000027c0       0x2c c:/users/minec/appdata/local/arduino15/packages/n-able-arduino/tools/gcc-arm-none-eabi/10.3.1-2.1/bin/../lib/gcc/arm-none-eabi/10.3.1/../../../../arm-none-eabi/lib/thumb/v7e-m/nofp\libc_nano.a(lib_a-init.o)
 .debug_frame   0x00000000000027ec       0x28 c:/users/minec/appdata/local/arduino15/packages/n-able-arduino/tools/gcc-arm-none-eabi/10.3.1-2.1/bin/../lib/gcc/arm-none-eabi/10.3.1/../../../../arm-none-eabi/lib/thumb/v7e-m/nofp\libc_nano.a(lib_a-memcpy-stub.o)
 .debug_frame   0x0000000000002814       0x20 c:/users/minec/appdata/local/arduino15/packages/n-able-arduino/tools/gcc-arm-none-eabi/10.3.1-2.1/bin/../lib/gcc/arm-none-eabi/10.3.1/../../../../arm-none-eabi/lib/thumb/v7e-m/nofp\libc_nano.a(lib_a-memset.o)
 .debug_frame   0x0000000000002834       0xcc c:/users/minec/appdata/local/arduino15/packages/n-able-arduino/tools/gcc-arm-none-eabi/10.3.1-2.1/bin/../lib/gcc/arm-none-eabi/10.3.1/../../../../arm-none-eabi/lib/thumb/v7e-m/nofp\libc_nano.a(lib_a-signal.o)
 .debug_frame   0x0000000000002900       0x3c c:/users/minec/appdata/local/arduino15/packages/n-able-arduino/tools/gcc-arm-none-eabi/10.3.1-2.1/bin/../lib/gcc/arm-none-eabi/10.3.1/../../../../arm-none-eabi/lib/thumb/v7e-m/nofp\libc_nano.a(lib_a-signalr.o)
 .debug_frame   0x000000000000293c       0x5c c:/users/minec/appdata/local/arduino15/packages/n-able-arduino/tools/gcc-arm-none-eabi/10.3.1-2.1/bin/../lib/gcc/arm-none-eabi/10.3.1/../../../../arm-none-eabi/lib/thumb/v7e-m/nofp\libc_nano.a(lib_a-reent.o)
 .debug_frame   0x0000000000002998       0x20 c:/users/minec/appdata/local/arduino15/packages/n-able-arduino/tools/gcc-arm-none-eabi/10.3.1-2.1/bin/../lib/gcc/arm-none-eabi/10.3.1/../../../../arm-none-eabi/lib/thumb/v7e-m/nofp\libnosys.a(getpid.o)
 .debug_frame   0x00000000000029b8       0x20 c:/users/minec/appdata/local/arduino15/packages/n-able-arduino/tools/gcc-arm-none-eabi/10.3.1-2.1/bin/../lib/gcc/arm-none-eabi/10.3.1/../../../../arm-none-eabi/lib/thumb/v7e-m/nofp\libnosys.a(kill.o)
 .debug_frame   0x00000000000029d8       0x20 c:/users/minec/appdata/local/arduino15/packages/n-able-arduino/tools/gcc-arm-none-eabi/10.3.1-2.1/bin/../lib/gcc/arm-none-eabi/10.3.1/../../../../arm-none-eabi/lib/thumb/v7e-m/nofp\libnosys.a(_exit.o)

.debug_loc      0x0000000000000000     0xcaab
 .debug_loc     0x0000000000000000       0x25 C:\Users\minec\AppData\Local\arduino\sketches\CBAA8D2BDA3D583126B4F168E555FB8A/..\..\cores\69cc2d20a9c0859fc6838a3a84e0426a\core.a(delay.c.o)
 .debug_loc     0x0000000000000025     0x21c6 C:\Users\minec\AppData\Local\arduino\sketches\CBAA8D2BDA3D583126B4F168E555FB8A/..\..\cores\69cc2d20a9c0859fc6838a3a84e0426a\core.a(tasks.c.o)
 .debug_loc     0x00000000000021eb      0xf44 C:\Users\minec\AppData\Local\arduino\sketches\CBAA8D2BDA3D583126B4F168E555FB8A/..\..\cores\69cc2d20a9c0859fc6838a3a84e0426a\core.a(timers.c.o)
 .debug_loc     0x000000000000312f       0x3a C:\Users\minec\AppData\Local\arduino\sketches\CBAA8D2BDA3D583126B4F168E555FB8A/..\..\cores\69cc2d20a9c0859fc6838a3a84e0426a\core.a(main.cpp.o)
 .debug_loc     0x0000000000003169       0x69 C:\Users\minec\AppData\Local\arduino\sketches\CBAA8D2BDA3D583126B4F168E555FB8A/..\..\cores\69cc2d20a9c0859fc6838a3a84e0426a\core.a(system_nrf52810.c.o)
 .debug_loc     0x00000000000031d2      0x1e1 C:\Users\minec\AppData\Local\arduino\sketches\CBAA8D2BDA3D583126B4F168E555FB8A/..\..\cores\69cc2d20a9c0859fc6838a3a84e0426a\core.a(rtos.cpp.o)
 .debug_loc     0x00000000000033b3      0x695 C:\Users\minec\AppData\Local\arduino\sketches\CBAA8D2BDA3D583126B4F168E555FB8A/..\..\cores\69cc2d20a9c0859fc6838a3a84e0426a\core.a(debug_utils.cpp.o)
 .debug_loc     0x0000000000003a48      0x1f3 C:\Users\minec\AppData\Local\arduino\sketches\CBAA8D2BDA3D583126B4F168E555FB8A/..\..\cores\69cc2d20a9c0859fc6838a3a84e0426a\core.a(wiring.c.o)
 .debug_loc     0x0000000000003c3b      0x412 C:\Users\minec\AppData\Local\arduino\sketches\CBAA8D2BDA3D583126B4F168E555FB8A/..\..\cores\69cc2d20a9c0859fc6838a3a84e0426a\core.a(wiring_digital.c.o)
 .debug_loc     0x000000000000404d     0x15bd C:\Users\minec\AppData\Local\arduino\sketches\CBAA8D2BDA3D583126B4F168E555FB8A/..\..\cores\69cc2d20a9c0859fc6838a3a84e0426a\core.a(Print.cpp.o)
 .debug_loc     0x000000000000560a      0x6d5 C:\Users\minec\AppData\Local\arduino\sketches\CBAA8D2BDA3D583126B4F168E555FB8A/..\..\cores\69cc2d20a9c0859fc6838a3a84e0426a\core.a(Uart.cpp.o)
 .debug_loc     0x0000000000005cdf      0x501 C:\Users\minec\AppData\Local\arduino\sketches\CBAA8D2BDA3D583126B4F168E555FB8A/..\..\cores\69cc2d20a9c0859fc6838a3a84e0426a\core.a(heap_4.c.o)
 .debug_loc     0x00000000000061e0       0xaf C:\Users\minec\AppData\Local\arduino\sketches\CBAA8D2BDA3D583126B4F168E555FB8A/..\..\cores\69cc2d20a9c0859fc6838a3a84e0426a\core.a(list.c.o)
 .debug_loc     0x000000000000628f       0x9b C:\Users\minec\AppData\Local\arduino\sketches\CBAA8D2BDA3D583126B4F168E555FB8A/..\..\cores\69cc2d20a9c0859fc6838a3a84e0426a\core.a(port_nrf52.c.o)
 .debug_loc     0x000000000000632a      0x5c4 C:\Users\minec\AppData\Local\arduino\sketches\CBAA8D2BDA3D583126B4F168E555FB8A/..\..\cores\69cc2d20a9c0859fc6838a3a84e0426a\core.a(port_nrf52_systick.c.o)
 .debug_loc     0x00000000000068ee     0x19e3 C:\Users\minec\AppData\Local\arduino\sketches\CBAA8D2BDA3D583126B4F168E555FB8A/..\..\cores\69cc2d20a9c0859fc6838a3a84e0426a\core.a(queue.c.o)
 .debug_loc     0x00000000000082d1     0x3721 C:\Users\minec\AppData\Local\arduino\sketches\CBAA8D2BDA3D583126B4F168E555FB8A/..\..\cores\69cc2d20a9c0859fc6838a3a84e0426a\core.a(printf.c.o)
 .debug_loc     0x000000000000b9f2      0x123 C:\Users\minec\AppData\Local\arduino\sketches\CBAA8D2BDA3D583126B4F168E555FB8A/..\..\cores\69cc2d20a9c0859fc6838a3a84e0426a\core.a(putchar.cpp.o)
 .debug_loc     0x000000000000bb15       0x94 C:\Users\minec\AppData\Local\arduino\sketches\CBAA8D2BDA3D583126B4F168E555FB8A/..\..\cores\69cc2d20a9c0859fc6838a3a84e0426a\core.a(new.cpp.o)
 .debug_loc     0x000000000000bba9      0x4e9 C:\Users\minec\AppData\Local\arduino\sketches\CBAA8D2BDA3D583126B4F168E555FB8A/..\..\cores\69cc2d20a9c0859fc6838a3a84e0426a\core.a(nrfx_clock.c.o)
 .debug_loc     0x000000000000c092      0x569 C:\Users\minec\AppData\Local\arduino\sketches\CBAA8D2BDA3D583126B4F168E555FB8A/..\..\cores\69cc2d20a9c0859fc6838a3a84e0426a\core.a(nrfx_power.c.o)
 .debug_loc     0x000000000000c5fb      0x1d7 C:\Users\minec\AppData\Local\arduino\sketches\CBAA8D2BDA3D583126B4F168E555FB8A/..\..\cores\69cc2d20a9c0859fc6838a3a84e0426a\core.a(RingBuffer.cpp.o)
 .debug_loc     0x000000000000c7d2      0x2d9 C:\Users\minec\AppData\Local\arduino\sketches\CBAA8D2BDA3D583126B4F168E555FB8A/..\..\cores\69cc2d20a9c0859fc6838a3a84e0426a\core.a(malloc.c.o)

.stab           0x0000000000000000       0x3c
 .stab          0x0000000000000000       0x24 c:/users/minec/appdata/local/arduino15/packages/n-able-arduino/tools/gcc-arm-none-eabi/10.3.1-2.1/bin/../lib/gcc/arm-none-eabi/10.3.1/../../../../arm-none-eabi/lib/thumb/v7e-m/nofp\libnosys.a(getpid.o)
 .stab          0x0000000000000024       0x18 c:/users/minec/appdata/local/arduino15/packages/n-able-arduino/tools/gcc-arm-none-eabi/10.3.1-2.1/bin/../lib/gcc/arm-none-eabi/10.3.1/../../../../arm-none-eabi/lib/thumb/v7e-m/nofp\libnosys.a(kill.o)
                                         0x24 (size before relaxing)

.stabstr        0x0000000000000000       0x76
 .stabstr       0x0000000000000000       0x76 c:/users/minec/appdata/local/arduino15/packages/n-able-arduino/tools/gcc-arm-none-eabi/10.3.1-2.1/bin/../lib/gcc/arm-none-eabi/10.3.1/../../../../arm-none-eabi/lib/thumb/v7e-m/nofp\libnosys.a(getpid.o)

Cross Reference Table

Symbol                                            File
BusFault_Handler                                  C:\Users\minec\AppData\Local\arduino\sketches\CBAA8D2BDA3D583126B4F168E555FB8A/..\..\cores\69cc2d20a9c0859fc6838a3a84e0426a\core.a(gcc_startup_nrf52810.S.o)
CCM_AAR_IRQHandler                                C:\Users\minec\AppData\Local\arduino\sketches\CBAA8D2BDA3D583126B4F168E555FB8A/..\..\cores\69cc2d20a9c0859fc6838a3a84e0426a\core.a(gcc_startup_nrf52810.S.o)
COMP_IRQHandler                                   C:\Users\minec\AppData\Local\arduino\sketches\CBAA8D2BDA3D583126B4F168E555FB8A/..\..\cores\69cc2d20a9c0859fc6838a3a84e0426a\core.a(gcc_startup_nrf52810.S.o)
DebugMon_Handler                                  C:\Users\minec\AppData\Local\arduino\sketches\CBAA8D2BDA3D583126B4F168E555FB8A/..\..\cores\69cc2d20a9c0859fc6838a3a84e0426a\core.a(gcc_startup_nrf52810.S.o)
Default_Handler                                   C:\Users\minec\AppData\Local\arduino\sketches\CBAA8D2BDA3D583126B4F168E555FB8A/..\..\cores\69cc2d20a9c0859fc6838a3a84e0426a\core.a(gcc_startup_nrf52810.S.o)
ECB_IRQHandler                                    C:\Users\minec\AppData\Local\arduino\sketches\CBAA8D2BDA3D583126B4F168E555FB8A/..\..\cores\69cc2d20a9c0859fc6838a3a84e0426a\core.a(gcc_startup_nrf52810.S.o)
GPIOTE_IRQHandler                                 C:\Users\minec\AppData\Local\arduino\sketches\CBAA8D2BDA3D583126B4F168E555FB8A/..\..\cores\69cc2d20a9c0859fc6838a3a84e0426a\core.a(gcc_startup_nrf52810.S.o)
HardFault_Handler                                 C:\Users\minec\AppData\Local\arduino\sketches\CBAA8D2BDA3D583126B4F168E555FB8A/..\..\cores\69cc2d20a9c0859fc6838a3a84e0426a\core.a(debug_utils.cpp.o)
                                                  C:\Users\minec\AppData\Local\arduino\sketches\CBAA8D2BDA3D583126B4F168E555FB8A/..\..\cores\69cc2d20a9c0859fc6838a3a84e0426a\core.a(gcc_startup_nrf52810.S.o)
Hardfault_handler_cpp                             C:\Users\minec\AppData\Local\arduino\sketches\CBAA8D2BDA3D583126B4F168E555FB8A/..\..\cores\69cc2d20a9c0859fc6838a3a84e0426a\core.a(debug_utils.cpp.o)
MemoryManagement_Handler                          C:\Users\minec\AppData\Local\arduino\sketches\CBAA8D2BDA3D583126B4F168E555FB8A/..\..\cores\69cc2d20a9c0859fc6838a3a84e0426a\core.a(gcc_startup_nrf52810.S.o)
NMI_Handler                                       C:\Users\minec\AppData\Local\arduino\sketches\CBAA8D2BDA3D583126B4F168E555FB8A/..\..\cores\69cc2d20a9c0859fc6838a3a84e0426a\core.a(gcc_startup_nrf52810.S.o)
PDM_IRQHandler                                    C:\Users\minec\AppData\Local\arduino\sketches\CBAA8D2BDA3D583126B4F168E555FB8A/..\..\cores\69cc2d20a9c0859fc6838a3a84e0426a\core.a(gcc_startup_nrf52810.S.o)
POWER_CLOCK_IRQHandler                            C:\Users\minec\AppData\Local\arduino\sketches\CBAA8D2BDA3D583126B4F168E555FB8A/..\..\cores\69cc2d20a9c0859fc6838a3a84e0426a\core.a(nrfx_power.c.o)
                                                  C:\Users\minec\AppData\Local\arduino\sketches\CBAA8D2BDA3D583126B4F168E555FB8A/..\..\cores\69cc2d20a9c0859fc6838a3a84e0426a\core.a(gcc_startup_nrf52810.S.o)
PWM0_IRQHandler                                   C:\Users\minec\AppData\Local\arduino\sketches\CBAA8D2BDA3D583126B4F168E555FB8A/..\..\cores\69cc2d20a9c0859fc6838a3a84e0426a\core.a(gcc_startup_nrf52810.S.o)
PendSV_Handler                                    C:\Users\minec\AppData\Local\arduino\sketches\CBAA8D2BDA3D583126B4F168E555FB8A/..\..\cores\69cc2d20a9c0859fc6838a3a84e0426a\core.a(port.c.o)
                                                  C:\Users\minec\AppData\Local\arduino\sketches\CBAA8D2BDA3D583126B4F168E555FB8A/..\..\cores\69cc2d20a9c0859fc6838a3a84e0426a\core.a(gcc_startup_nrf52810.S.o)
Print::availableForWrite()                        C:\Users\minec\AppData\Local\arduino\sketches\CBAA8D2BDA3D583126B4F168E555FB8A/..\..\cores\69cc2d20a9c0859fc6838a3a84e0426a\core.a(Print.cpp.o)
                                                  C:\Users\minec\AppData\Local\arduino\sketches\CBAA8D2BDA3D583126B4F168E555FB8A/..\..\cores\69cc2d20a9c0859fc6838a3a84e0426a\core.a(Uart.cpp.o)
Print::flush()                                    C:\Users\minec\AppData\Local\arduino\sketches\CBAA8D2BDA3D583126B4F168E555FB8A/..\..\cores\69cc2d20a9c0859fc6838a3a84e0426a\core.a(Print.cpp.o)
Print::print(Printable const&)                    C:\Users\minec\AppData\Local\arduino\sketches\CBAA8D2BDA3D583126B4F168E555FB8A/..\..\cores\69cc2d20a9c0859fc6838a3a84e0426a\core.a(Print.cpp.o)
Print::print(String const&)                       C:\Users\minec\AppData\Local\arduino\sketches\CBAA8D2BDA3D583126B4F168E555FB8A/..\..\cores\69cc2d20a9c0859fc6838a3a84e0426a\core.a(Print.cpp.o)
Print::print(__FlashStringHelper const*)          C:\Users\minec\AppData\Local\arduino\sketches\CBAA8D2BDA3D583126B4F168E555FB8A/..\..\cores\69cc2d20a9c0859fc6838a3a84e0426a\core.a(Print.cpp.o)
Print::print(char const*)                         C:\Users\minec\AppData\Local\arduino\sketches\CBAA8D2BDA3D583126B4F168E555FB8A/..\..\cores\69cc2d20a9c0859fc6838a3a84e0426a\core.a(Print.cpp.o)
Print::print(char)                                C:\Users\minec\AppData\Local\arduino\sketches\CBAA8D2BDA3D583126B4F168E555FB8A/..\..\cores\69cc2d20a9c0859fc6838a3a84e0426a\core.a(Print.cpp.o)
Print::print(double, int)                         C:\Users\minec\AppData\Local\arduino\sketches\CBAA8D2BDA3D583126B4F168E555FB8A/..\..\cores\69cc2d20a9c0859fc6838a3a84e0426a\core.a(Print.cpp.o)
Print::print(int, int)                            C:\Users\minec\AppData\Local\arduino\sketches\CBAA8D2BDA3D583126B4F168E555FB8A/..\..\cores\69cc2d20a9c0859fc6838a3a84e0426a\core.a(Print.cpp.o)
Print::print(long, int)                           C:\Users\minec\AppData\Local\arduino\sketches\CBAA8D2BDA3D583126B4F168E555FB8A/..\..\cores\69cc2d20a9c0859fc6838a3a84e0426a\core.a(Print.cpp.o)
Print::print(unsigned char, int)                  C:\Users\minec\AppData\Local\arduino\sketches\CBAA8D2BDA3D583126B4F168E555FB8A/..\..\cores\69cc2d20a9c0859fc6838a3a84e0426a\core.a(Print.cpp.o)
Print::print(unsigned int, int)                   C:\Users\minec\AppData\Local\arduino\sketches\CBAA8D2BDA3D583126B4F168E555FB8A/..\..\cores\69cc2d20a9c0859fc6838a3a84e0426a\core.a(Print.cpp.o)
Print::print(unsigned long, int)                  C:\Users\minec\AppData\Local\arduino\sketches\CBAA8D2BDA3D583126B4F168E555FB8A/..\..\cores\69cc2d20a9c0859fc6838a3a84e0426a\core.a(Print.cpp.o)
Print::printFloat(double, unsigned char)          C:\Users\minec\AppData\Local\arduino\sketches\CBAA8D2BDA3D583126B4F168E555FB8A/..\..\cores\69cc2d20a9c0859fc6838a3a84e0426a\core.a(Print.cpp.o)
Print::printNumber(unsigned long, unsigned char)  C:\Users\minec\AppData\Local\arduino\sketches\CBAA8D2BDA3D583126B4F168E555FB8A/..\..\cores\69cc2d20a9c0859fc6838a3a84e0426a\core.a(Print.cpp.o)
Print::printf(char const*, ...)                   C:\Users\minec\AppData\Local\arduino\sketches\CBAA8D2BDA3D583126B4F168E555FB8A/..\..\cores\69cc2d20a9c0859fc6838a3a84e0426a\core.a(Print.cpp.o)
                                                  C:\Users\minec\AppData\Local\arduino\sketches\CBAA8D2BDA3D583126B4F168E555FB8A/..\..\cores\69cc2d20a9c0859fc6838a3a84e0426a\core.a(debug_utils.cpp.o)
                                                  C:\Users\minec\AppData\Local\arduino\sketches\CBAA8D2BDA3D583126B4F168E555FB8A/..\..\cores\69cc2d20a9c0859fc6838a3a84e0426a\core.a(rtos.cpp.o)
Print::println()                                  C:\Users\minec\AppData\Local\arduino\sketches\CBAA8D2BDA3D583126B4F168E555FB8A/..\..\cores\69cc2d20a9c0859fc6838a3a84e0426a\core.a(Print.cpp.o)
Print::println(Printable const&)                  C:\Users\minec\AppData\Local\arduino\sketches\CBAA8D2BDA3D583126B4F168E555FB8A/..\..\cores\69cc2d20a9c0859fc6838a3a84e0426a\core.a(Print.cpp.o)
Print::println(String const&)                     C:\Users\minec\AppData\Local\arduino\sketches\CBAA8D2BDA3D583126B4F168E555FB8A/..\..\cores\69cc2d20a9c0859fc6838a3a84e0426a\core.a(Print.cpp.o)
Print::println(__FlashStringHelper const*)        C:\Users\minec\AppData\Local\arduino\sketches\CBAA8D2BDA3D583126B4F168E555FB8A/..\..\cores\69cc2d20a9c0859fc6838a3a84e0426a\core.a(Print.cpp.o)
Print::println(char const*)                       C:\Users\minec\AppData\Local\arduino\sketches\CBAA8D2BDA3D583126B4F168E555FB8A/..\..\cores\69cc2d20a9c0859fc6838a3a84e0426a\core.a(Print.cpp.o)
                                                  C:\Users\minec\AppData\Local\arduino\sketches\CBAA8D2BDA3D583126B4F168E555FB8A/..\..\cores\69cc2d20a9c0859fc6838a3a84e0426a\core.a(debug_utils.cpp.o)
Print::println(char)                              C:\Users\minec\AppData\Local\arduino\sketches\CBAA8D2BDA3D583126B4F168E555FB8A/..\..\cores\69cc2d20a9c0859fc6838a3a84e0426a\core.a(Print.cpp.o)
Print::println(double, int)                       C:\Users\minec\AppData\Local\arduino\sketches\CBAA8D2BDA3D583126B4F168E555FB8A/..\..\cores\69cc2d20a9c0859fc6838a3a84e0426a\core.a(Print.cpp.o)
Print::println(int, int)                          C:\Users\minec\AppData\Local\arduino\sketches\CBAA8D2BDA3D583126B4F168E555FB8A/..\..\cores\69cc2d20a9c0859fc6838a3a84e0426a\core.a(Print.cpp.o)
Print::println(long, int)                         C:\Users\minec\AppData\Local\arduino\sketches\CBAA8D2BDA3D583126B4F168E555FB8A/..\..\cores\69cc2d20a9c0859fc6838a3a84e0426a\core.a(Print.cpp.o)
Print::println(unsigned char, int)                C:\Users\minec\AppData\Local\arduino\sketches\CBAA8D2BDA3D583126B4F168E555FB8A/..\..\cores\69cc2d20a9c0859fc6838a3a84e0426a\core.a(Print.cpp.o)
Print::println(unsigned int, int)                 C:\Users\minec\AppData\Local\arduino\sketches\CBAA8D2BDA3D583126B4F168E555FB8A/..\..\cores\69cc2d20a9c0859fc6838a3a84e0426a\core.a(Print.cpp.o)
Print::println(unsigned long, int)                C:\Users\minec\AppData\Local\arduino\sketches\CBAA8D2BDA3D583126B4F168E555FB8A/..\..\cores\69cc2d20a9c0859fc6838a3a84e0426a\core.a(Print.cpp.o)
Print::write(char const*)                         C:\Users\minec\AppData\Local\arduino\sketches\CBAA8D2BDA3D583126B4F168E555FB8A/..\..\cores\69cc2d20a9c0859fc6838a3a84e0426a\core.a(Print.cpp.o)
Print::write(unsigned char const*, unsigned int)  C:\Users\minec\AppData\Local\arduino\sketches\CBAA8D2BDA3D583126B4F168E555FB8A/..\..\cores\69cc2d20a9c0859fc6838a3a84e0426a\core.a(Print.cpp.o)
                                                  C:\Users\minec\AppData\Local\arduino\sketches\CBAA8D2BDA3D583126B4F168E555FB8A/..\..\cores\69cc2d20a9c0859fc6838a3a84e0426a\core.a(putchar.cpp.o)
                                                  C:\Users\minec\AppData\Local\arduino\sketches\CBAA8D2BDA3D583126B4F168E555FB8A/..\..\cores\69cc2d20a9c0859fc6838a3a84e0426a\core.a(Uart.cpp.o)
QDEC_IRQHandler                                   C:\Users\minec\AppData\Local\arduino\sketches\CBAA8D2BDA3D583126B4F168E555FB8A/..\..\cores\69cc2d20a9c0859fc6838a3a84e0426a\core.a(gcc_startup_nrf52810.S.o)
RADIO_IRQHandler                                  C:\Users\minec\AppData\Local\arduino\sketches\CBAA8D2BDA3D583126B4F168E555FB8A/..\..\cores\69cc2d20a9c0859fc6838a3a84e0426a\core.a(gcc_startup_nrf52810.S.o)
RNG_IRQHandler                                    C:\Users\minec\AppData\Local\arduino\sketches\CBAA8D2BDA3D583126B4F168E555FB8A/..\..\cores\69cc2d20a9c0859fc6838a3a84e0426a\core.a(gcc_startup_nrf52810.S.o)
RTC0_IRQHandler                                   C:\Users\minec\AppData\Local\arduino\sketches\CBAA8D2BDA3D583126B4F168E555FB8A/..\..\cores\69cc2d20a9c0859fc6838a3a84e0426a\core.a(gcc_startup_nrf52810.S.o)
RTC1_IRQHandler                                   C:\Users\minec\AppData\Local\arduino\sketches\CBAA8D2BDA3D583126B4F168E555FB8A/..\..\cores\69cc2d20a9c0859fc6838a3a84e0426a\core.a(port_nrf52_systick.c.o)
                                                  C:\Users\minec\AppData\Local\arduino\sketches\CBAA8D2BDA3D583126B4F168E555FB8A/..\..\cores\69cc2d20a9c0859fc6838a3a84e0426a\core.a(gcc_startup_nrf52810.S.o)
RTOS                                              C:\Users\minec\AppData\Local\arduino\sketches\CBAA8D2BDA3D583126B4F168E555FB8A/..\..\cores\69cc2d20a9c0859fc6838a3a84e0426a\core.a(rtos.cpp.o)
Reset_Handler                                     C:\Users\minec\AppData\Local\arduino\sketches\CBAA8D2BDA3D583126B4F168E555FB8A/..\..\cores\69cc2d20a9c0859fc6838a3a84e0426a\core.a(gcc_startup_nrf52810.S.o)
RingBuffer::RingBuffer()                          C:\Users\minec\AppData\Local\arduino\sketches\CBAA8D2BDA3D583126B4F168E555FB8A/..\..\cores\69cc2d20a9c0859fc6838a3a84e0426a\core.a(RingBuffer.cpp.o)
                                                  C:\Users\minec\AppData\Local\arduino\sketches\CBAA8D2BDA3D583126B4F168E555FB8A/..\..\cores\69cc2d20a9c0859fc6838a3a84e0426a\core.a(Uart.cpp.o)
RingBuffer::RingBuffer()                          C:\Users\minec\AppData\Local\arduino\sketches\CBAA8D2BDA3D583126B4F168E555FB8A/..\..\cores\69cc2d20a9c0859fc6838a3a84e0426a\core.a(RingBuffer.cpp.o)
RingBuffer::available()                           C:\Users\minec\AppData\Local\arduino\sketches\CBAA8D2BDA3D583126B4F168E555FB8A/..\..\cores\69cc2d20a9c0859fc6838a3a84e0426a\core.a(RingBuffer.cpp.o)
                                                  C:\Users\minec\AppData\Local\arduino\sketches\CBAA8D2BDA3D583126B4F168E555FB8A/..\..\cores\69cc2d20a9c0859fc6838a3a84e0426a\core.a(Uart.cpp.o)
RingBuffer::clear()                               C:\Users\minec\AppData\Local\arduino\sketches\CBAA8D2BDA3D583126B4F168E555FB8A/..\..\cores\69cc2d20a9c0859fc6838a3a84e0426a\core.a(RingBuffer.cpp.o)
                                                  C:\Users\minec\AppData\Local\arduino\sketches\CBAA8D2BDA3D583126B4F168E555FB8A/..\..\cores\69cc2d20a9c0859fc6838a3a84e0426a\core.a(Uart.cpp.o)
RingBuffer::isFull()                              C:\Users\minec\AppData\Local\arduino\sketches\CBAA8D2BDA3D583126B4F168E555FB8A/..\..\cores\69cc2d20a9c0859fc6838a3a84e0426a\core.a(RingBuffer.cpp.o)
RingBuffer::nextIndex(int)                        C:\Users\minec\AppData\Local\arduino\sketches\CBAA8D2BDA3D583126B4F168E555FB8A/..\..\cores\69cc2d20a9c0859fc6838a3a84e0426a\core.a(RingBuffer.cpp.o)
RingBuffer::peek()                                C:\Users\minec\AppData\Local\arduino\sketches\CBAA8D2BDA3D583126B4F168E555FB8A/..\..\cores\69cc2d20a9c0859fc6838a3a84e0426a\core.a(RingBuffer.cpp.o)
                                                  C:\Users\minec\AppData\Local\arduino\sketches\CBAA8D2BDA3D583126B4F168E555FB8A/..\..\cores\69cc2d20a9c0859fc6838a3a84e0426a\core.a(Uart.cpp.o)
RingBuffer::read_char()                           C:\Users\minec\AppData\Local\arduino\sketches\CBAA8D2BDA3D583126B4F168E555FB8A/..\..\cores\69cc2d20a9c0859fc6838a3a84e0426a\core.a(RingBuffer.cpp.o)
                                                  C:\Users\minec\AppData\Local\arduino\sketches\CBAA8D2BDA3D583126B4F168E555FB8A/..\..\cores\69cc2d20a9c0859fc6838a3a84e0426a\core.a(Uart.cpp.o)
RingBuffer::store_char(unsigned char)             C:\Users\minec\AppData\Local\arduino\sketches\CBAA8D2BDA3D583126B4F168E555FB8A/..\..\cores\69cc2d20a9c0859fc6838a3a84e0426a\core.a(RingBuffer.cpp.o)
                                                  C:\Users\minec\AppData\Local\arduino\sketches\CBAA8D2BDA3D583126B4F168E555FB8A/..\..\cores\69cc2d20a9c0859fc6838a3a84e0426a\core.a(Uart.cpp.o)
SAADC_IRQHandler                                  C:\Users\minec\AppData\Local\arduino\sketches\CBAA8D2BDA3D583126B4F168E555FB8A/..\..\cores\69cc2d20a9c0859fc6838a3a84e0426a\core.a(gcc_startup_nrf52810.S.o)
SPIM0_SPIS0_SPI0_IRQHandler                       C:\Users\minec\AppData\Local\arduino\sketches\CBAA8D2BDA3D583126B4F168E555FB8A/..\..\cores\69cc2d20a9c0859fc6838a3a84e0426a\core.a(gcc_startup_nrf52810.S.o)
SVC_Handler                                       C:\Users\minec\AppData\Local\arduino\sketches\CBAA8D2BDA3D583126B4F168E555FB8A/..\..\cores\69cc2d20a9c0859fc6838a3a84e0426a\core.a(port.c.o)
                                                  C:\Users\minec\AppData\Local\arduino\sketches\CBAA8D2BDA3D583126B4F168E555FB8A/..\..\cores\69cc2d20a9c0859fc6838a3a84e0426a\core.a(gcc_startup_nrf52810.S.o)
SWI0_EGU0_IRQHandler                              C:\Users\minec\AppData\Local\arduino\sketches\CBAA8D2BDA3D583126B4F168E555FB8A/..\..\cores\69cc2d20a9c0859fc6838a3a84e0426a\core.a(gcc_startup_nrf52810.S.o)
SWI1_EGU1_IRQHandler                              C:\Users\minec\AppData\Local\arduino\sketches\CBAA8D2BDA3D583126B4F168E555FB8A/..\..\cores\69cc2d20a9c0859fc6838a3a84e0426a\core.a(gcc_startup_nrf52810.S.o)
SWI2_IRQHandler                                   C:\Users\minec\AppData\Local\arduino\sketches\CBAA8D2BDA3D583126B4F168E555FB8A/..\..\cores\69cc2d20a9c0859fc6838a3a84e0426a\core.a(gcc_startup_nrf52810.S.o)
SWI3_IRQHandler                                   C:\Users\minec\AppData\Local\arduino\sketches\CBAA8D2BDA3D583126B4F168E555FB8A/..\..\cores\69cc2d20a9c0859fc6838a3a84e0426a\core.a(gcc_startup_nrf52810.S.o)
SWI4_IRQHandler                                   C:\Users\minec\AppData\Local\arduino\sketches\CBAA8D2BDA3D583126B4F168E555FB8A/..\..\cores\69cc2d20a9c0859fc6838a3a84e0426a\core.a(gcc_startup_nrf52810.S.o)
SWI5_IRQHandler                                   C:\Users\minec\AppData\Local\arduino\sketches\CBAA8D2BDA3D583126B4F168E555FB8A/..\..\cores\69cc2d20a9c0859fc6838a3a84e0426a\core.a(gcc_startup_nrf52810.S.o)
Serial                                            C:\Users\minec\AppData\Local\arduino\sketches\CBAA8D2BDA3D583126B4F168E555FB8A/..\..\cores\69cc2d20a9c0859fc6838a3a84e0426a\core.a(Uart.cpp.o)
                                                  C:\Users\minec\AppData\Local\arduino\sketches\CBAA8D2BDA3D583126B4F168E555FB8A/..\..\cores\69cc2d20a9c0859fc6838a3a84e0426a\core.a(putchar.cpp.o)
                                                  C:\Users\minec\AppData\Local\arduino\sketches\CBAA8D2BDA3D583126B4F168E555FB8A/..\..\cores\69cc2d20a9c0859fc6838a3a84e0426a\core.a(debug_utils.cpp.o)
                                                  C:\Users\minec\AppData\Local\arduino\sketches\CBAA8D2BDA3D583126B4F168E555FB8A/..\..\cores\69cc2d20a9c0859fc6838a3a84e0426a\core.a(rtos.cpp.o)
SysTick_Handler                                   C:\Users\minec\AppData\Local\arduino\sketches\CBAA8D2BDA3D583126B4F168E555FB8A/..\..\cores\69cc2d20a9c0859fc6838a3a84e0426a\core.a(gcc_startup_nrf52810.S.o)
SystemCoreClock                                   C:\Users\minec\AppData\Local\arduino\sketches\CBAA8D2BDA3D583126B4F168E555FB8A/..\..\cores\69cc2d20a9c0859fc6838a3a84e0426a\core.a(system_nrf52810.c.o)
SystemCoreClockUpdate                             C:\Users\minec\AppData\Local\arduino\sketches\CBAA8D2BDA3D583126B4F168E555FB8A/..\..\cores\69cc2d20a9c0859fc6838a3a84e0426a\core.a(system_nrf52810.c.o)
SystemInit                                        C:\Users\minec\AppData\Local\arduino\sketches\CBAA8D2BDA3D583126B4F168E555FB8A/..\..\cores\69cc2d20a9c0859fc6838a3a84e0426a\core.a(system_nrf52810.c.o)
                                                  C:\Users\minec\AppData\Local\arduino\sketches\CBAA8D2BDA3D583126B4F168E555FB8A/..\..\cores\69cc2d20a9c0859fc6838a3a84e0426a\core.a(gcc_startup_nrf52810.S.o)
TEMP_IRQHandler                                   C:\Users\minec\AppData\Local\arduino\sketches\CBAA8D2BDA3D583126B4F168E555FB8A/..\..\cores\69cc2d20a9c0859fc6838a3a84e0426a\core.a(gcc_startup_nrf52810.S.o)
TIMER0_IRQHandler                                 C:\Users\minec\AppData\Local\arduino\sketches\CBAA8D2BDA3D583126B4F168E555FB8A/..\..\cores\69cc2d20a9c0859fc6838a3a84e0426a\core.a(gcc_startup_nrf52810.S.o)
TIMER1_IRQHandler                                 C:\Users\minec\AppData\Local\arduino\sketches\CBAA8D2BDA3D583126B4F168E555FB8A/..\..\cores\69cc2d20a9c0859fc6838a3a84e0426a\core.a(gcc_startup_nrf52810.S.o)
TIMER2_IRQHandler                                 C:\Users\minec\AppData\Local\arduino\sketches\CBAA8D2BDA3D583126B4F168E555FB8A/..\..\cores\69cc2d20a9c0859fc6838a3a84e0426a\core.a(gcc_startup_nrf52810.S.o)
TWIM0_TWIS0_TWI0_IRQHandler                       C:\Users\minec\AppData\Local\arduino\sketches\CBAA8D2BDA3D583126B4F168E555FB8A/..\..\cores\69cc2d20a9c0859fc6838a3a84e0426a\core.a(gcc_startup_nrf52810.S.o)
UARTE0_UART0_IRQHandler                           C:\Users\minec\AppData\Local\arduino\sketches\CBAA8D2BDA3D583126B4F168E555FB8A/..\..\cores\69cc2d20a9c0859fc6838a3a84e0426a\core.a(Uart.cpp.o)
                                                  C:\Users\minec\AppData\Local\arduino\sketches\CBAA8D2BDA3D583126B4F168E555FB8A/..\..\cores\69cc2d20a9c0859fc6838a3a84e0426a\core.a(gcc_startup_nrf52810.S.o)
Uart::IrqHandler()                                C:\Users\minec\AppData\Local\arduino\sketches\CBAA8D2BDA3D583126B4F168E555FB8A/..\..\cores\69cc2d20a9c0859fc6838a3a84e0426a\core.a(Uart.cpp.o)
Uart::Uart(NRF_UART_Type*, IRQn_Type, unsigned char, unsigned char) C:\Users\minec\AppData\Local\arduino\sketches\CBAA8D2BDA3D583126B4F168E555FB8A/..\..\cores\69cc2d20a9c0859fc6838a3a84e0426a\core.a(Uart.cpp.o)
Uart::Uart(NRF_UART_Type*, IRQn_Type, unsigned char, unsigned char) C:\Users\minec\AppData\Local\arduino\sketches\CBAA8D2BDA3D583126B4F168E555FB8A/..\..\cores\69cc2d20a9c0859fc6838a3a84e0426a\core.a(Uart.cpp.o)
Uart::Uart(NRF_UART_Type*, IRQn_Type, unsigned char, unsigned char, unsigned char, unsigned char) C:\Users\minec\AppData\Local\arduino\sketches\CBAA8D2BDA3D583126B4F168E555FB8A/..\..\cores\69cc2d20a9c0859fc6838a3a84e0426a\core.a(Uart.cpp.o)
Uart::Uart(NRF_UART_Type*, IRQn_Type, unsigned char, unsigned char, unsigned char, unsigned char) C:\Users\minec\AppData\Local\arduino\sketches\CBAA8D2BDA3D583126B4F168E555FB8A/..\..\cores\69cc2d20a9c0859fc6838a3a84e0426a\core.a(Uart.cpp.o)
Uart::available()                                 C:\Users\minec\AppData\Local\arduino\sketches\CBAA8D2BDA3D583126B4F168E555FB8A/..\..\cores\69cc2d20a9c0859fc6838a3a84e0426a\core.a(Uart.cpp.o)
Uart::begin(unsigned long)                        C:\Users\minec\AppData\Local\arduino\sketches\CBAA8D2BDA3D583126B4F168E555FB8A/..\..\cores\69cc2d20a9c0859fc6838a3a84e0426a\core.a(Uart.cpp.o)
Uart::begin(unsigned long, unsigned short)        C:\Users\minec\AppData\Local\arduino\sketches\CBAA8D2BDA3D583126B4F168E555FB8A/..\..\cores\69cc2d20a9c0859fc6838a3a84e0426a\core.a(Uart.cpp.o)
Uart::end()                                       C:\Users\minec\AppData\Local\arduino\sketches\CBAA8D2BDA3D583126B4F168E555FB8A/..\..\cores\69cc2d20a9c0859fc6838a3a84e0426a\core.a(Uart.cpp.o)
Uart::flush()                                     C:\Users\minec\AppData\Local\arduino\sketches\CBAA8D2BDA3D583126B4F168E555FB8A/..\..\cores\69cc2d20a9c0859fc6838a3a84e0426a\core.a(Uart.cpp.o)
Uart::operator bool()                             C:\Users\minec\AppData\Local\arduino\sketches\CBAA8D2BDA3D583126B4F168E555FB8A/..\..\cores\69cc2d20a9c0859fc6838a3a84e0426a\core.a(Uart.cpp.o)
                                                  C:\Users\minec\AppData\Local\arduino\sketches\CBAA8D2BDA3D583126B4F168E555FB8A/..\..\cores\69cc2d20a9c0859fc6838a3a84e0426a\core.a(debug_utils.cpp.o)
Uart::peek()                                      C:\Users\minec\AppData\Local\arduino\sketches\CBAA8D2BDA3D583126B4F168E555FB8A/..\..\cores\69cc2d20a9c0859fc6838a3a84e0426a\core.a(Uart.cpp.o)
Uart::read()                                      C:\Users\minec\AppData\Local\arduino\sketches\CBAA8D2BDA3D583126B4F168E555FB8A/..\..\cores\69cc2d20a9c0859fc6838a3a84e0426a\core.a(Uart.cpp.o)
Uart::setPins(unsigned char, unsigned char)       C:\Users\minec\AppData\Local\arduino\sketches\CBAA8D2BDA3D583126B4F168E555FB8A/..\..\cores\69cc2d20a9c0859fc6838a3a84e0426a\core.a(Uart.cpp.o)
Uart::setPins(unsigned char, unsigned char, unsigned char, unsigned char) C:\Users\minec\AppData\Local\arduino\sketches\CBAA8D2BDA3D583126B4F168E555FB8A/..\..\cores\69cc2d20a9c0859fc6838a3a84e0426a\core.a(Uart.cpp.o)
Uart::write(unsigned char)                        C:\Users\minec\AppData\Local\arduino\sketches\CBAA8D2BDA3D583126B4F168E555FB8A/..\..\cores\69cc2d20a9c0859fc6838a3a84e0426a\core.a(Uart.cpp.o)
                                                  C:\Users\minec\AppData\Local\arduino\sketches\CBAA8D2BDA3D583126B4F168E555FB8A/..\..\cores\69cc2d20a9c0859fc6838a3a84e0426a\core.a(putchar.cpp.o)
Uart::~Uart()                                     C:\Users\minec\AppData\Local\arduino\sketches\CBAA8D2BDA3D583126B4F168E555FB8A/..\..\cores\69cc2d20a9c0859fc6838a3a84e0426a\core.a(Uart.cpp.o)
Uart::~Uart()                                     C:\Users\minec\AppData\Local\arduino\sketches\CBAA8D2BDA3D583126B4F168E555FB8A/..\..\cores\69cc2d20a9c0859fc6838a3a84e0426a\core.a(Uart.cpp.o)
Uart::~Uart()                                     C:\Users\minec\AppData\Local\arduino\sketches\CBAA8D2BDA3D583126B4F168E555FB8A/..\..\cores\69cc2d20a9c0859fc6838a3a84e0426a\core.a(Uart.cpp.o)
UsageFault_Handler                                C:\Users\minec\AppData\Local\arduino\sketches\CBAA8D2BDA3D583126B4F168E555FB8A/..\..\cores\69cc2d20a9c0859fc6838a3a84e0426a\core.a(gcc_startup_nrf52810.S.o)
WDT_IRQHandler                                    C:\Users\minec\AppData\Local\arduino\sketches\CBAA8D2BDA3D583126B4F168E555FB8A/..\..\cores\69cc2d20a9c0859fc6838a3a84e0426a\core.a(gcc_startup_nrf52810.S.o)
_Unwind_Backtrace                                 c:/users/minec/appdata/local/arduino15/packages/n-able-arduino/tools/gcc-arm-none-eabi/10.3.1-2.1/bin/../lib/gcc/arm-none-eabi/10.3.1/thumb/v7e-m/nofp\libgcc.a(libunwind.o)
_Unwind_Complete                                  c:/users/minec/appdata/local/arduino15/packages/n-able-arduino/tools/gcc-arm-none-eabi/10.3.1-2.1/bin/../lib/gcc/arm-none-eabi/10.3.1/thumb/v7e-m/nofp\libgcc.a(unwind-arm.o)
_Unwind_DeleteException                           c:/users/minec/appdata/local/arduino15/packages/n-able-arduino/tools/gcc-arm-none-eabi/10.3.1-2.1/bin/../lib/gcc/arm-none-eabi/10.3.1/thumb/v7e-m/nofp\libgcc.a(unwind-arm.o)
_Unwind_ForcedUnwind                              c:/users/minec/appdata/local/arduino15/packages/n-able-arduino/tools/gcc-arm-none-eabi/10.3.1-2.1/bin/../lib/gcc/arm-none-eabi/10.3.1/thumb/v7e-m/nofp\libgcc.a(libunwind.o)
_Unwind_GetCFA                                    c:/users/minec/appdata/local/arduino15/packages/n-able-arduino/tools/gcc-arm-none-eabi/10.3.1-2.1/bin/../lib/gcc/arm-none-eabi/10.3.1/thumb/v7e-m/nofp\libgcc.a(unwind-arm.o)
_Unwind_GetDataRelBase                            c:/users/minec/appdata/local/arduino15/packages/n-able-arduino/tools/gcc-arm-none-eabi/10.3.1-2.1/bin/../lib/gcc/arm-none-eabi/10.3.1/thumb/v7e-m/nofp\libgcc.a(pr-support.o)
_Unwind_GetLanguageSpecificData                   c:/users/minec/appdata/local/arduino15/packages/n-able-arduino/tools/gcc-arm-none-eabi/10.3.1-2.1/bin/../lib/gcc/arm-none-eabi/10.3.1/thumb/v7e-m/nofp\libgcc.a(pr-support.o)
_Unwind_GetRegionStart                            c:/users/minec/appdata/local/arduino15/packages/n-able-arduino/tools/gcc-arm-none-eabi/10.3.1-2.1/bin/../lib/gcc/arm-none-eabi/10.3.1/thumb/v7e-m/nofp\libgcc.a(pr-support.o)
_Unwind_GetTextRelBase                            c:/users/minec/appdata/local/arduino15/packages/n-able-arduino/tools/gcc-arm-none-eabi/10.3.1-2.1/bin/../lib/gcc/arm-none-eabi/10.3.1/thumb/v7e-m/nofp\libgcc.a(pr-support.o)
_Unwind_RaiseException                            c:/users/minec/appdata/local/arduino15/packages/n-able-arduino/tools/gcc-arm-none-eabi/10.3.1-2.1/bin/../lib/gcc/arm-none-eabi/10.3.1/thumb/v7e-m/nofp\libgcc.a(libunwind.o)
_Unwind_Resume                                    c:/users/minec/appdata/local/arduino15/packages/n-able-arduino/tools/gcc-arm-none-eabi/10.3.1-2.1/bin/../lib/gcc/arm-none-eabi/10.3.1/thumb/v7e-m/nofp\libgcc.a(libunwind.o)
_Unwind_Resume_or_Rethrow                         c:/users/minec/appdata/local/arduino15/packages/n-able-arduino/tools/gcc-arm-none-eabi/10.3.1-2.1/bin/../lib/gcc/arm-none-eabi/10.3.1/thumb/v7e-m/nofp\libgcc.a(libunwind.o)
_Unwind_VRS_Get                                   c:/users/minec/appdata/local/arduino15/packages/n-able-arduino/tools/gcc-arm-none-eabi/10.3.1-2.1/bin/../lib/gcc/arm-none-eabi/10.3.1/thumb/v7e-m/nofp\libgcc.a(unwind-arm.o)
                                                  c:/users/minec/appdata/local/arduino15/packages/n-able-arduino/tools/gcc-arm-none-eabi/10.3.1-2.1/bin/../lib/gcc/arm-none-eabi/10.3.1/thumb/v7e-m/nofp\libgcc.a(pr-support.o)
_Unwind_VRS_Pop                                   c:/users/minec/appdata/local/arduino15/packages/n-able-arduino/tools/gcc-arm-none-eabi/10.3.1-2.1/bin/../lib/gcc/arm-none-eabi/10.3.1/thumb/v7e-m/nofp\libgcc.a(unwind-arm.o)
                                                  c:/users/minec/appdata/local/arduino15/packages/n-able-arduino/tools/gcc-arm-none-eabi/10.3.1-2.1/bin/../lib/gcc/arm-none-eabi/10.3.1/thumb/v7e-m/nofp\libgcc.a(pr-support.o)
_Unwind_VRS_Set                                   c:/users/minec/appdata/local/arduino15/packages/n-able-arduino/tools/gcc-arm-none-eabi/10.3.1-2.1/bin/../lib/gcc/arm-none-eabi/10.3.1/thumb/v7e-m/nofp\libgcc.a(unwind-arm.o)
                                                  c:/users/minec/appdata/local/arduino15/packages/n-able-arduino/tools/gcc-arm-none-eabi/10.3.1-2.1/bin/../lib/gcc/arm-none-eabi/10.3.1/thumb/v7e-m/nofp\libgcc.a(pr-support.o)
__HeapBase                                        C:\Users\minec\AppData\Local\arduino\sketches\CBAA8D2BDA3D583126B4F168E555FB8A/..\..\cores\69cc2d20a9c0859fc6838a3a84e0426a\core.a(gcc_startup_nrf52810.S.o)
                                                  C:\Users\minec\AppData\Local\arduino\sketches\CBAA8D2BDA3D583126B4F168E555FB8A/..\..\cores\69cc2d20a9c0859fc6838a3a84e0426a\core.a(heap_4.c.o)
__HeapLimit                                       C:\Users\minec\AppData\Local\arduino\sketches\CBAA8D2BDA3D583126B4F168E555FB8A/..\..\cores\69cc2d20a9c0859fc6838a3a84e0426a\core.a(gcc_startup_nrf52810.S.o)
__StackLimit                                      C:\Users\minec\AppData\Local\arduino\sketches\CBAA8D2BDA3D583126B4F168E555FB8A/..\..\cores\69cc2d20a9c0859fc6838a3a84e0426a\core.a(gcc_startup_nrf52810.S.o)
                                                  C:\Users\minec\AppData\Local\arduino\sketches\CBAA8D2BDA3D583126B4F168E555FB8A/..\..\cores\69cc2d20a9c0859fc6838a3a84e0426a\core.a(heap_4.c.o)
                                                  C:\Users\minec\AppData\Local\arduino\sketches\CBAA8D2BDA3D583126B4F168E555FB8A/..\..\cores\69cc2d20a9c0859fc6838a3a84e0426a\core.a(debug_utils.cpp.o)
                                                  C:\Users\minec\AppData\Local\arduino\sketches\CBAA8D2BDA3D583126B4F168E555FB8A/..\..\cores\69cc2d20a9c0859fc6838a3a84e0426a\core.a(rtos.cpp.o)
__StackTop                                        C:\Users\minec\AppData\Local\arduino\sketches\CBAA8D2BDA3D583126B4F168E555FB8A/..\..\cores\69cc2d20a9c0859fc6838a3a84e0426a\core.a(gcc_startup_nrf52810.S.o)
                                                  C:\Users\minec\AppData\Local\arduino\sketches\CBAA8D2BDA3D583126B4F168E555FB8A/..\..\cores\69cc2d20a9c0859fc6838a3a84e0426a\core.a(debug_utils.cpp.o)
                                                  C:\Users\minec\AppData\Local\arduino\sketches\CBAA8D2BDA3D583126B4F168E555FB8A/..\..\cores\69cc2d20a9c0859fc6838a3a84e0426a\core.a(rtos.cpp.o)
___Unwind_Backtrace                               c:/users/minec/appdata/local/arduino15/packages/n-able-arduino/tools/gcc-arm-none-eabi/10.3.1-2.1/bin/../lib/gcc/arm-none-eabi/10.3.1/thumb/v7e-m/nofp\libgcc.a(libunwind.o)
___Unwind_ForcedUnwind                            c:/users/minec/appdata/local/arduino15/packages/n-able-arduino/tools/gcc-arm-none-eabi/10.3.1-2.1/bin/../lib/gcc/arm-none-eabi/10.3.1/thumb/v7e-m/nofp\libgcc.a(libunwind.o)
___Unwind_RaiseException                          c:/users/minec/appdata/local/arduino15/packages/n-able-arduino/tools/gcc-arm-none-eabi/10.3.1-2.1/bin/../lib/gcc/arm-none-eabi/10.3.1/thumb/v7e-m/nofp\libgcc.a(libunwind.o)
___Unwind_Resume                                  c:/users/minec/appdata/local/arduino15/packages/n-able-arduino/tools/gcc-arm-none-eabi/10.3.1-2.1/bin/../lib/gcc/arm-none-eabi/10.3.1/thumb/v7e-m/nofp\libgcc.a(libunwind.o)
___Unwind_Resume_or_Rethrow                       c:/users/minec/appdata/local/arduino15/packages/n-able-arduino/tools/gcc-arm-none-eabi/10.3.1-2.1/bin/../lib/gcc/arm-none-eabi/10.3.1/thumb/v7e-m/nofp\libgcc.a(libunwind.o)
__adddf3                                          c:/users/minec/appdata/local/arduino15/packages/n-able-arduino/tools/gcc-arm-none-eabi/10.3.1-2.1/bin/../lib/gcc/arm-none-eabi/10.3.1/thumb/v7e-m/nofp\libgcc.a(_arm_addsubdf3.o)
__aeabi_atexit                                    c:/users/minec/appdata/local/arduino15/packages/n-able-arduino/tools/gcc-arm-none-eabi/10.3.1-2.1/bin/../lib/gcc/arm-none-eabi/10.3.1/../../../../arm-none-eabi/lib/thumb/v7e-m/nofp\libstdc++_nano.a(atexit_arm.o)
                                                  C:\Users\minec\AppData\Local\arduino\sketches\CBAA8D2BDA3D583126B4F168E555FB8A/..\..\cores\69cc2d20a9c0859fc6838a3a84e0426a\core.a(Uart.cpp.o)
                                                  C:\Users\minec\AppData\Local\arduino\sketches\CBAA8D2BDA3D583126B4F168E555FB8A/..\..\cores\69cc2d20a9c0859fc6838a3a84e0426a\core.a(rtos.cpp.o)
__aeabi_cdcmpeq                                   c:/users/minec/appdata/local/arduino15/packages/n-able-arduino/tools/gcc-arm-none-eabi/10.3.1-2.1/bin/../lib/gcc/arm-none-eabi/10.3.1/thumb/v7e-m/nofp\libgcc.a(_arm_cmpdf2.o)
__aeabi_cdcmple                                   c:/users/minec/appdata/local/arduino15/packages/n-able-arduino/tools/gcc-arm-none-eabi/10.3.1-2.1/bin/../lib/gcc/arm-none-eabi/10.3.1/thumb/v7e-m/nofp\libgcc.a(_arm_cmpdf2.o)
__aeabi_cdrcmple                                  c:/users/minec/appdata/local/arduino15/packages/n-able-arduino/tools/gcc-arm-none-eabi/10.3.1-2.1/bin/../lib/gcc/arm-none-eabi/10.3.1/thumb/v7e-m/nofp\libgcc.a(_arm_cmpdf2.o)
__aeabi_d2iz                                      c:/users/minec/appdata/local/arduino15/packages/n-able-arduino/tools/gcc-arm-none-eabi/10.3.1-2.1/bin/../lib/gcc/arm-none-eabi/10.3.1/thumb/v7e-m/nofp\libgcc.a(_arm_fixdfsi.o)
                                                  C:\Users\minec\AppData\Local\arduino\sketches\CBAA8D2BDA3D583126B4F168E555FB8A/..\..\cores\69cc2d20a9c0859fc6838a3a84e0426a\core.a(printf.c.o)
                                                  C:\Users\minec\AppData\Local\arduino\sketches\CBAA8D2BDA3D583126B4F168E555FB8A/..\..\cores\69cc2d20a9c0859fc6838a3a84e0426a\core.a(Print.cpp.o)
__aeabi_d2lz                                      c:/users/minec/appdata/local/arduino15/packages/n-able-arduino/tools/gcc-arm-none-eabi/10.3.1-2.1/bin/../lib/gcc/arm-none-eabi/10.3.1/thumb/v7e-m/nofp\libgcc.a(_fixdfdi.o)
                                                  C:\Users\minec\AppData\Local\arduino\sketches\CBAA8D2BDA3D583126B4F168E555FB8A/..\..\cores\69cc2d20a9c0859fc6838a3a84e0426a\core.a(printf.c.o)
__aeabi_d2uiz                                     c:/users/minec/appdata/local/arduino15/packages/n-able-arduino/tools/gcc-arm-none-eabi/10.3.1-2.1/bin/../lib/gcc/arm-none-eabi/10.3.1/thumb/v7e-m/nofp\libgcc.a(_arm_fixunsdfsi.o)
                                                  c:/users/minec/appdata/local/arduino15/packages/n-able-arduino/tools/gcc-arm-none-eabi/10.3.1-2.1/bin/../lib/gcc/arm-none-eabi/10.3.1/thumb/v7e-m/nofp\libgcc.a(_fixunsdfdi.o)
                                                  C:\Users\minec\AppData\Local\arduino\sketches\CBAA8D2BDA3D583126B4F168E555FB8A/..\..\cores\69cc2d20a9c0859fc6838a3a84e0426a\core.a(Print.cpp.o)
__aeabi_d2ulz                                     c:/users/minec/appdata/local/arduino15/packages/n-able-arduino/tools/gcc-arm-none-eabi/10.3.1-2.1/bin/../lib/gcc/arm-none-eabi/10.3.1/thumb/v7e-m/nofp\libgcc.a(_fixunsdfdi.o)
                                                  c:/users/minec/appdata/local/arduino15/packages/n-able-arduino/tools/gcc-arm-none-eabi/10.3.1-2.1/bin/../lib/gcc/arm-none-eabi/10.3.1/thumb/v7e-m/nofp\libgcc.a(_fixdfdi.o)
__aeabi_dadd                                      c:/users/minec/appdata/local/arduino15/packages/n-able-arduino/tools/gcc-arm-none-eabi/10.3.1-2.1/bin/../lib/gcc/arm-none-eabi/10.3.1/thumb/v7e-m/nofp\libgcc.a(_arm_addsubdf3.o)
                                                  C:\Users\minec\AppData\Local\arduino\sketches\CBAA8D2BDA3D583126B4F168E555FB8A/..\..\cores\69cc2d20a9c0859fc6838a3a84e0426a\core.a(printf.c.o)
                                                  C:\Users\minec\AppData\Local\arduino\sketches\CBAA8D2BDA3D583126B4F168E555FB8A/..\..\cores\69cc2d20a9c0859fc6838a3a84e0426a\core.a(Print.cpp.o)
__aeabi_dcmpeq                                    c:/users/minec/appdata/local/arduino15/packages/n-able-arduino/tools/gcc-arm-none-eabi/10.3.1-2.1/bin/../lib/gcc/arm-none-eabi/10.3.1/thumb/v7e-m/nofp\libgcc.a(_arm_cmpdf2.o)
                                                  C:\Users\minec\AppData\Local\arduino\sketches\CBAA8D2BDA3D583126B4F168E555FB8A/..\..\cores\69cc2d20a9c0859fc6838a3a84e0426a\core.a(printf.c.o)
__aeabi_dcmpge                                    c:/users/minec/appdata/local/arduino15/packages/n-able-arduino/tools/gcc-arm-none-eabi/10.3.1-2.1/bin/../lib/gcc/arm-none-eabi/10.3.1/thumb/v7e-m/nofp\libgcc.a(_arm_cmpdf2.o)
                                                  C:\Users\minec\AppData\Local\arduino\sketches\CBAA8D2BDA3D583126B4F168E555FB8A/..\..\cores\69cc2d20a9c0859fc6838a3a84e0426a\core.a(printf.c.o)
__aeabi_dcmpgt                                    c:/users/minec/appdata/local/arduino15/packages/n-able-arduino/tools/gcc-arm-none-eabi/10.3.1-2.1/bin/../lib/gcc/arm-none-eabi/10.3.1/thumb/v7e-m/nofp\libgcc.a(_arm_cmpdf2.o)
                                                  C:\Users\minec\AppData\Local\arduino\sketches\CBAA8D2BDA3D583126B4F168E555FB8A/..\..\cores\69cc2d20a9c0859fc6838a3a84e0426a\core.a(printf.c.o)
                                                  C:\Users\minec\AppData\Local\arduino\sketches\CBAA8D2BDA3D583126B4F168E555FB8A/..\..\cores\69cc2d20a9c0859fc6838a3a84e0426a\core.a(Print.cpp.o)
__aeabi_dcmple                                    c:/users/minec/appdata/local/arduino15/packages/n-able-arduino/tools/gcc-arm-none-eabi/10.3.1-2.1/bin/../lib/gcc/arm-none-eabi/10.3.1/thumb/v7e-m/nofp\libgcc.a(_arm_cmpdf2.o)
                                                  C:\Users\minec\AppData\Local\arduino\sketches\CBAA8D2BDA3D583126B4F168E555FB8A/..\..\cores\69cc2d20a9c0859fc6838a3a84e0426a\core.a(printf.c.o)
                                                  C:\Users\minec\AppData\Local\arduino\sketches\CBAA8D2BDA3D583126B4F168E555FB8A/..\..\cores\69cc2d20a9c0859fc6838a3a84e0426a\core.a(Print.cpp.o)
__aeabi_dcmplt                                    c:/users/minec/appdata/local/arduino15/packages/n-able-arduino/tools/gcc-arm-none-eabi/10.3.1-2.1/bin/../lib/gcc/arm-none-eabi/10.3.1/thumb/v7e-m/nofp\libgcc.a(_arm_cmpdf2.o)
                                                  c:/users/minec/appdata/local/arduino15/packages/n-able-arduino/tools/gcc-arm-none-eabi/10.3.1-2.1/bin/../lib/gcc/arm-none-eabi/10.3.1/thumb/v7e-m/nofp\libgcc.a(_fixdfdi.o)
                                                  C:\Users\minec\AppData\Local\arduino\sketches\CBAA8D2BDA3D583126B4F168E555FB8A/..\..\cores\69cc2d20a9c0859fc6838a3a84e0426a\core.a(printf.c.o)
                                                  C:\Users\minec\AppData\Local\arduino\sketches\CBAA8D2BDA3D583126B4F168E555FB8A/..\..\cores\69cc2d20a9c0859fc6838a3a84e0426a\core.a(Print.cpp.o)
__aeabi_dcmpun                                    c:/users/minec/appdata/local/arduino15/packages/n-able-arduino/tools/gcc-arm-none-eabi/10.3.1-2.1/bin/../lib/gcc/arm-none-eabi/10.3.1/thumb/v7e-m/nofp\libgcc.a(_arm_unorddf2.o)
                                                  C:\Users\minec\AppData\Local\arduino\sketches\CBAA8D2BDA3D583126B4F168E555FB8A/..\..\cores\69cc2d20a9c0859fc6838a3a84e0426a\core.a(Print.cpp.o)
__aeabi_ddiv                                      c:/users/minec/appdata/local/arduino15/packages/n-able-arduino/tools/gcc-arm-none-eabi/10.3.1-2.1/bin/../lib/gcc/arm-none-eabi/10.3.1/thumb/v7e-m/nofp\libgcc.a(_arm_muldivdf3.o)
                                                  C:\Users\minec\AppData\Local\arduino\sketches\CBAA8D2BDA3D583126B4F168E555FB8A/..\..\cores\69cc2d20a9c0859fc6838a3a84e0426a\core.a(printf.c.o)
                                                  C:\Users\minec\AppData\Local\arduino\sketches\CBAA8D2BDA3D583126B4F168E555FB8A/..\..\cores\69cc2d20a9c0859fc6838a3a84e0426a\core.a(Print.cpp.o)
__aeabi_dmul                                      c:/users/minec/appdata/local/arduino15/packages/n-able-arduino/tools/gcc-arm-none-eabi/10.3.1-2.1/bin/../lib/gcc/arm-none-eabi/10.3.1/thumb/v7e-m/nofp\libgcc.a(_arm_muldivdf3.o)
                                                  c:/users/minec/appdata/local/arduino15/packages/n-able-arduino/tools/gcc-arm-none-eabi/10.3.1-2.1/bin/../lib/gcc/arm-none-eabi/10.3.1/thumb/v7e-m/nofp\libgcc.a(_arm_muldf3.o)
                                                  c:/users/minec/appdata/local/arduino15/packages/n-able-arduino/tools/gcc-arm-none-eabi/10.3.1-2.1/bin/../lib/gcc/arm-none-eabi/10.3.1/thumb/v7e-m/nofp\libgcc.a(_fixunsdfdi.o)
                                                  C:\Users\minec\AppData\Local\arduino\sketches\CBAA8D2BDA3D583126B4F168E555FB8A/..\..\cores\69cc2d20a9c0859fc6838a3a84e0426a\core.a(printf.c.o)
                                                  C:\Users\minec\AppData\Local\arduino\sketches\CBAA8D2BDA3D583126B4F168E555FB8A/..\..\cores\69cc2d20a9c0859fc6838a3a84e0426a\core.a(Print.cpp.o)
__aeabi_drsub                                     c:/users/minec/appdata/local/arduino15/packages/n-able-arduino/tools/gcc-arm-none-eabi/10.3.1-2.1/bin/../lib/gcc/arm-none-eabi/10.3.1/thumb/v7e-m/nofp\libgcc.a(_arm_addsubdf3.o)
__aeabi_dsub                                      c:/users/minec/appdata/local/arduino15/packages/n-able-arduino/tools/gcc-arm-none-eabi/10.3.1-2.1/bin/../lib/gcc/arm-none-eabi/10.3.1/thumb/v7e-m/nofp\libgcc.a(_arm_addsubdf3.o)
                                                  c:/users/minec/appdata/local/arduino15/packages/n-able-arduino/tools/gcc-arm-none-eabi/10.3.1-2.1/bin/../lib/gcc/arm-none-eabi/10.3.1/thumb/v7e-m/nofp\libgcc.a(_fixunsdfdi.o)
                                                  C:\Users\minec\AppData\Local\arduino\sketches\CBAA8D2BDA3D583126B4F168E555FB8A/..\..\cores\69cc2d20a9c0859fc6838a3a84e0426a\core.a(printf.c.o)
                                                  C:\Users\minec\AppData\Local\arduino\sketches\CBAA8D2BDA3D583126B4F168E555FB8A/..\..\cores\69cc2d20a9c0859fc6838a3a84e0426a\core.a(Print.cpp.o)
__aeabi_f2d                                       c:/users/minec/appdata/local/arduino15/packages/n-able-arduino/tools/gcc-arm-none-eabi/10.3.1-2.1/bin/../lib/gcc/arm-none-eabi/10.3.1/thumb/v7e-m/nofp\libgcc.a(_arm_addsubdf3.o)
__aeabi_i2d                                       c:/users/minec/appdata/local/arduino15/packages/n-able-arduino/tools/gcc-arm-none-eabi/10.3.1-2.1/bin/../lib/gcc/arm-none-eabi/10.3.1/thumb/v7e-m/nofp\libgcc.a(_arm_addsubdf3.o)
                                                  C:\Users\minec\AppData\Local\arduino\sketches\CBAA8D2BDA3D583126B4F168E555FB8A/..\..\cores\69cc2d20a9c0859fc6838a3a84e0426a\core.a(printf.c.o)
                                                  C:\Users\minec\AppData\Local\arduino\sketches\CBAA8D2BDA3D583126B4F168E555FB8A/..\..\cores\69cc2d20a9c0859fc6838a3a84e0426a\core.a(Print.cpp.o)
__aeabi_idiv0                                     c:/users/minec/appdata/local/arduino15/packages/n-able-arduino/tools/gcc-arm-none-eabi/10.3.1-2.1/bin/../lib/gcc/arm-none-eabi/10.3.1/thumb/v7e-m/nofp\libgcc.a(_dvmd_tls.o)
__aeabi_l2d                                       c:/users/minec/appdata/local/arduino15/packages/n-able-arduino/tools/gcc-arm-none-eabi/10.3.1-2.1/bin/../lib/gcc/arm-none-eabi/10.3.1/thumb/v7e-m/nofp\libgcc.a(_arm_addsubdf3.o)
                                                  C:\Users\minec\AppData\Local\arduino\sketches\CBAA8D2BDA3D583126B4F168E555FB8A/..\..\cores\69cc2d20a9c0859fc6838a3a84e0426a\core.a(printf.c.o)
__aeabi_ldiv0                                     c:/users/minec/appdata/local/arduino15/packages/n-able-arduino/tools/gcc-arm-none-eabi/10.3.1-2.1/bin/../lib/gcc/arm-none-eabi/10.3.1/thumb/v7e-m/nofp\libgcc.a(_dvmd_tls.o)
                                                  c:/users/minec/appdata/local/arduino15/packages/n-able-arduino/tools/gcc-arm-none-eabi/10.3.1-2.1/bin/../lib/gcc/arm-none-eabi/10.3.1/thumb/v7e-m/nofp\libgcc.a(_aeabi_uldivmod.o)
                                                  c:/users/minec/appdata/local/arduino15/packages/n-able-arduino/tools/gcc-arm-none-eabi/10.3.1-2.1/bin/../lib/gcc/arm-none-eabi/10.3.1/thumb/v7e-m/nofp\libgcc.a(_aeabi_ldivmod.o)
__aeabi_ldivmod                                   c:/users/minec/appdata/local/arduino15/packages/n-able-arduino/tools/gcc-arm-none-eabi/10.3.1-2.1/bin/../lib/gcc/arm-none-eabi/10.3.1/thumb/v7e-m/nofp\libgcc.a(_aeabi_ldivmod.o)
                                                  C:\Users\minec\AppData\Local\arduino\sketches\CBAA8D2BDA3D583126B4F168E555FB8A/..\..\cores\69cc2d20a9c0859fc6838a3a84e0426a\core.a(printf.c.o)
__aeabi_ui2d                                      c:/users/minec/appdata/local/arduino15/packages/n-able-arduino/tools/gcc-arm-none-eabi/10.3.1-2.1/bin/../lib/gcc/arm-none-eabi/10.3.1/thumb/v7e-m/nofp\libgcc.a(_arm_addsubdf3.o)
                                                  c:/users/minec/appdata/local/arduino15/packages/n-able-arduino/tools/gcc-arm-none-eabi/10.3.1-2.1/bin/../lib/gcc/arm-none-eabi/10.3.1/thumb/v7e-m/nofp\libgcc.a(_fixunsdfdi.o)
                                                  C:\Users\minec\AppData\Local\arduino\sketches\CBAA8D2BDA3D583126B4F168E555FB8A/..\..\cores\69cc2d20a9c0859fc6838a3a84e0426a\core.a(Print.cpp.o)
__aeabi_ul2d                                      c:/users/minec/appdata/local/arduino15/packages/n-able-arduino/tools/gcc-arm-none-eabi/10.3.1-2.1/bin/../lib/gcc/arm-none-eabi/10.3.1/thumb/v7e-m/nofp\libgcc.a(_arm_addsubdf3.o)
__aeabi_uldivmod                                  c:/users/minec/appdata/local/arduino15/packages/n-able-arduino/tools/gcc-arm-none-eabi/10.3.1-2.1/bin/../lib/gcc/arm-none-eabi/10.3.1/thumb/v7e-m/nofp\libgcc.a(_aeabi_uldivmod.o)
                                                  C:\Users\minec\AppData\Local\arduino\sketches\CBAA8D2BDA3D583126B4F168E555FB8A/..\..\cores\69cc2d20a9c0859fc6838a3a84e0426a\core.a(printf.c.o)
__aeabi_unwind_cpp_pr0                            c:/users/minec/appdata/local/arduino15/packages/n-able-arduino/tools/gcc-arm-none-eabi/10.3.1-2.1/bin/../lib/gcc/arm-none-eabi/10.3.1/thumb/v7e-m/nofp\libgcc.a(unwind-arm.o)
                                                  c:/users/minec/appdata/local/arduino15/packages/n-able-arduino/tools/gcc-arm-none-eabi/10.3.1-2.1/bin/../lib/gcc/arm-none-eabi/10.3.1/thumb/v7e-m/nofp\libgcc.a(pr-support.o)
                                                  c:/users/minec/appdata/local/arduino15/packages/n-able-arduino/tools/gcc-arm-none-eabi/10.3.1-2.1/bin/../lib/gcc/arm-none-eabi/10.3.1/thumb/v7e-m/nofp\libgcc.a(_fixdfdi.o)
__aeabi_unwind_cpp_pr1                            c:/users/minec/appdata/local/arduino15/packages/n-able-arduino/tools/gcc-arm-none-eabi/10.3.1-2.1/bin/../lib/gcc/arm-none-eabi/10.3.1/thumb/v7e-m/nofp\libgcc.a(unwind-arm.o)
                                                  c:/users/minec/appdata/local/arduino15/packages/n-able-arduino/tools/gcc-arm-none-eabi/10.3.1-2.1/bin/../lib/gcc/arm-none-eabi/10.3.1/thumb/v7e-m/nofp\libgcc.a(pr-support.o)
__aeabi_unwind_cpp_pr2                            c:/users/minec/appdata/local/arduino15/packages/n-able-arduino/tools/gcc-arm-none-eabi/10.3.1-2.1/bin/../lib/gcc/arm-none-eabi/10.3.1/thumb/v7e-m/nofp\libgcc.a(unwind-arm.o)
__assert_func                                     C:\Users\minec\AppData\Local\arduino\sketches\CBAA8D2BDA3D583126B4F168E555FB8A/..\..\cores\69cc2d20a9c0859fc6838a3a84e0426a\core.a(debug_utils.cpp.o)
                                                  C:\Users\minec\AppData\Local\arduino\sketches\CBAA8D2BDA3D583126B4F168E555FB8A/..\..\cores\69cc2d20a9c0859fc6838a3a84e0426a\core.a(wiring.c.o)
__bss_end__                                       c:/users/minec/appdata/local/arduino15/packages/n-able-arduino/tools/gcc-arm-none-eabi/10.3.1-2.1/bin/../lib/gcc/arm-none-eabi/10.3.1/../../../../arm-none-eabi/lib/thumb/v7e-m/nofp/crt0.o
__bss_start__                                     C:\Users\minec\AppData\Local\arduino\sketches\CBAA8D2BDA3D583126B4F168E555FB8A/..\..\cores\69cc2d20a9c0859fc6838a3a84e0426a\core.a(gcc_startup_nrf52810.S.o)
                                                  c:/users/minec/appdata/local/arduino15/packages/n-able-arduino/tools/gcc-arm-none-eabi/10.3.1-2.1/bin/../lib/gcc/arm-none-eabi/10.3.1/../../../../arm-none-eabi/lib/thumb/v7e-m/nofp/crt0.o
__call_exitprocs                                  c:/users/minec/appdata/local/arduino15/packages/n-able-arduino/tools/gcc-arm-none-eabi/10.3.1-2.1/bin/../lib/gcc/arm-none-eabi/10.3.1/../../../../arm-none-eabi/lib/thumb/v7e-m/nofp\libc_nano.a(lib_a-exit.o)
__cmpdf2                                          c:/users/minec/appdata/local/arduino15/packages/n-able-arduino/tools/gcc-arm-none-eabi/10.3.1-2.1/bin/../lib/gcc/arm-none-eabi/10.3.1/thumb/v7e-m/nofp\libgcc.a(_arm_cmpdf2.o)
__cxa_atexit                                      c:/users/minec/appdata/local/arduino15/packages/n-able-arduino/tools/gcc-arm-none-eabi/10.3.1-2.1/bin/../lib/gcc/arm-none-eabi/10.3.1/../../../../arm-none-eabi/lib/thumb/v7e-m/nofp\libc_nano.a(lib_a-cxa_atexit.o)
                                                  c:/users/minec/appdata/local/arduino15/packages/n-able-arduino/tools/gcc-arm-none-eabi/10.3.1-2.1/bin/../lib/gcc/arm-none-eabi/10.3.1/../../../../arm-none-eabi/lib/thumb/v7e-m/nofp\libstdc++_nano.a(atexit_arm.o)
__cxa_atexit_dummy                                c:/users/minec/appdata/local/arduino15/packages/n-able-arduino/tools/gcc-arm-none-eabi/10.3.1-2.1/bin/../lib/gcc/arm-none-eabi/10.3.1/../../../../arm-none-eabi/lib/thumb/v7e-m/nofp\libc_nano.a(lib_a-cxa_atexit.o)
__cxa_begin_cleanup                               c:/users/minec/appdata/local/arduino15/packages/n-able-arduino/tools/gcc-arm-none-eabi/10.3.1-2.1/bin/../lib/gcc/arm-none-eabi/10.3.1/thumb/v7e-m/nofp\libgcc.a(unwind-arm.o)
__cxa_call_unexpected                             c:/users/minec/appdata/local/arduino15/packages/n-able-arduino/tools/gcc-arm-none-eabi/10.3.1-2.1/bin/../lib/gcc/arm-none-eabi/10.3.1/thumb/v7e-m/nofp\libgcc.a(unwind-arm.o)
__cxa_deleted_virtual                             C:\Users\minec\AppData\Local\arduino\sketches\CBAA8D2BDA3D583126B4F168E555FB8A/..\..\cores\69cc2d20a9c0859fc6838a3a84e0426a\core.a(debug_utils.cpp.o)
__cxa_pure_virtual                                C:\Users\minec\AppData\Local\arduino\sketches\CBAA8D2BDA3D583126B4F168E555FB8A/..\..\cores\69cc2d20a9c0859fc6838a3a84e0426a\core.a(debug_utils.cpp.o)
                                                  C:\Users\minec\AppData\Local\arduino\sketches\CBAA8D2BDA3D583126B4F168E555FB8A/..\..\cores\69cc2d20a9c0859fc6838a3a84e0426a\core.a(Print.cpp.o)
__cxa_type_match                                  c:/users/minec/appdata/local/arduino15/packages/n-able-arduino/tools/gcc-arm-none-eabi/10.3.1-2.1/bin/../lib/gcc/arm-none-eabi/10.3.1/thumb/v7e-m/nofp\libgcc.a(unwind-arm.o)
__data_start__                                    C:\Users\minec\AppData\Local\arduino\sketches\CBAA8D2BDA3D583126B4F168E555FB8A/..\..\cores\69cc2d20a9c0859fc6838a3a84e0426a\core.a(gcc_startup_nrf52810.S.o)
__deregister_frame_info                           c:/users/minec/appdata/local/arduino15/packages/n-able-arduino/tools/gcc-arm-none-eabi/10.3.1-2.1/bin/../lib/gcc/arm-none-eabi/10.3.1/thumb/v7e-m/nofp/crtbegin.o
__divdf3                                          c:/users/minec/appdata/local/arduino15/packages/n-able-arduino/tools/gcc-arm-none-eabi/10.3.1-2.1/bin/../lib/gcc/arm-none-eabi/10.3.1/thumb/v7e-m/nofp\libgcc.a(_arm_muldivdf3.o)
__dso_handle                                      c:/users/minec/appdata/local/arduino15/packages/n-able-arduino/tools/gcc-arm-none-eabi/10.3.1-2.1/bin/../lib/gcc/arm-none-eabi/10.3.1/thumb/v7e-m/nofp/crtbegin.o
                                                  C:\Users\minec\AppData\Local\arduino\sketches\CBAA8D2BDA3D583126B4F168E555FB8A/..\..\cores\69cc2d20a9c0859fc6838a3a84e0426a\core.a(Uart.cpp.o)
                                                  C:\Users\minec\AppData\Local\arduino\sketches\CBAA8D2BDA3D583126B4F168E555FB8A/..\..\cores\69cc2d20a9c0859fc6838a3a84e0426a\core.a(rtos.cpp.o)
__eqdf2                                           c:/users/minec/appdata/local/arduino15/packages/n-able-arduino/tools/gcc-arm-none-eabi/10.3.1-2.1/bin/../lib/gcc/arm-none-eabi/10.3.1/thumb/v7e-m/nofp\libgcc.a(_arm_cmpdf2.o)
__etext                                           C:\Users\minec\AppData\Local\arduino\sketches\CBAA8D2BDA3D583126B4F168E555FB8A/..\..\cores\69cc2d20a9c0859fc6838a3a84e0426a\core.a(debug_utils.cpp.o)
                                                  C:\Users\minec\AppData\Local\arduino\sketches\CBAA8D2BDA3D583126B4F168E555FB8A/..\..\cores\69cc2d20a9c0859fc6838a3a84e0426a\core.a(gcc_startup_nrf52810.S.o)
__exidx_end                                       c:/users/minec/appdata/local/arduino15/packages/n-able-arduino/tools/gcc-arm-none-eabi/10.3.1-2.1/bin/../lib/gcc/arm-none-eabi/10.3.1/thumb/v7e-m/nofp\libgcc.a(unwind-arm.o)
__exidx_start                                     c:/users/minec/appdata/local/arduino15/packages/n-able-arduino/tools/gcc-arm-none-eabi/10.3.1-2.1/bin/../lib/gcc/arm-none-eabi/10.3.1/thumb/v7e-m/nofp\libgcc.a(unwind-arm.o)
__extendsfdf2                                     c:/users/minec/appdata/local/arduino15/packages/n-able-arduino/tools/gcc-arm-none-eabi/10.3.1-2.1/bin/../lib/gcc/arm-none-eabi/10.3.1/thumb/v7e-m/nofp\libgcc.a(_arm_addsubdf3.o)
__fixdfdi                                         c:/users/minec/appdata/local/arduino15/packages/n-able-arduino/tools/gcc-arm-none-eabi/10.3.1-2.1/bin/../lib/gcc/arm-none-eabi/10.3.1/thumb/v7e-m/nofp\libgcc.a(_fixdfdi.o)
__fixdfsi                                         c:/users/minec/appdata/local/arduino15/packages/n-able-arduino/tools/gcc-arm-none-eabi/10.3.1-2.1/bin/../lib/gcc/arm-none-eabi/10.3.1/thumb/v7e-m/nofp\libgcc.a(_arm_fixdfsi.o)
__fixunsdfdi                                      c:/users/minec/appdata/local/arduino15/packages/n-able-arduino/tools/gcc-arm-none-eabi/10.3.1-2.1/bin/../lib/gcc/arm-none-eabi/10.3.1/thumb/v7e-m/nofp\libgcc.a(_fixunsdfdi.o)
__fixunsdfsi                                      c:/users/minec/appdata/local/arduino15/packages/n-able-arduino/tools/gcc-arm-none-eabi/10.3.1-2.1/bin/../lib/gcc/arm-none-eabi/10.3.1/thumb/v7e-m/nofp\libgcc.a(_arm_fixunsdfsi.o)
__floatdidf                                       c:/users/minec/appdata/local/arduino15/packages/n-able-arduino/tools/gcc-arm-none-eabi/10.3.1-2.1/bin/../lib/gcc/arm-none-eabi/10.3.1/thumb/v7e-m/nofp\libgcc.a(_arm_addsubdf3.o)
__floatsidf                                       c:/users/minec/appdata/local/arduino15/packages/n-able-arduino/tools/gcc-arm-none-eabi/10.3.1-2.1/bin/../lib/gcc/arm-none-eabi/10.3.1/thumb/v7e-m/nofp\libgcc.a(_arm_addsubdf3.o)
__floatundidf                                     c:/users/minec/appdata/local/arduino15/packages/n-able-arduino/tools/gcc-arm-none-eabi/10.3.1-2.1/bin/../lib/gcc/arm-none-eabi/10.3.1/thumb/v7e-m/nofp\libgcc.a(_arm_addsubdf3.o)
__floatunsidf                                     c:/users/minec/appdata/local/arduino15/packages/n-able-arduino/tools/gcc-arm-none-eabi/10.3.1-2.1/bin/../lib/gcc/arm-none-eabi/10.3.1/thumb/v7e-m/nofp\libgcc.a(_arm_addsubdf3.o)
__gedf2                                           c:/users/minec/appdata/local/arduino15/packages/n-able-arduino/tools/gcc-arm-none-eabi/10.3.1-2.1/bin/../lib/gcc/arm-none-eabi/10.3.1/thumb/v7e-m/nofp\libgcc.a(_arm_cmpdf2.o)
__gnu_Unwind_Backtrace                            c:/users/minec/appdata/local/arduino15/packages/n-able-arduino/tools/gcc-arm-none-eabi/10.3.1-2.1/bin/../lib/gcc/arm-none-eabi/10.3.1/thumb/v7e-m/nofp\libgcc.a(unwind-arm.o)
                                                  c:/users/minec/appdata/local/arduino15/packages/n-able-arduino/tools/gcc-arm-none-eabi/10.3.1-2.1/bin/../lib/gcc/arm-none-eabi/10.3.1/thumb/v7e-m/nofp\libgcc.a(libunwind.o)
__gnu_Unwind_Find_exidx                           c:/users/minec/appdata/local/arduino15/packages/n-able-arduino/tools/gcc-arm-none-eabi/10.3.1-2.1/bin/../lib/gcc/arm-none-eabi/10.3.1/thumb/v7e-m/nofp\libgcc.a(unwind-arm.o)
__gnu_Unwind_ForcedUnwind                         c:/users/minec/appdata/local/arduino15/packages/n-able-arduino/tools/gcc-arm-none-eabi/10.3.1-2.1/bin/../lib/gcc/arm-none-eabi/10.3.1/thumb/v7e-m/nofp\libgcc.a(unwind-arm.o)
                                                  c:/users/minec/appdata/local/arduino15/packages/n-able-arduino/tools/gcc-arm-none-eabi/10.3.1-2.1/bin/../lib/gcc/arm-none-eabi/10.3.1/thumb/v7e-m/nofp\libgcc.a(libunwind.o)
__gnu_Unwind_RaiseException                       c:/users/minec/appdata/local/arduino15/packages/n-able-arduino/tools/gcc-arm-none-eabi/10.3.1-2.1/bin/../lib/gcc/arm-none-eabi/10.3.1/thumb/v7e-m/nofp\libgcc.a(unwind-arm.o)
                                                  c:/users/minec/appdata/local/arduino15/packages/n-able-arduino/tools/gcc-arm-none-eabi/10.3.1-2.1/bin/../lib/gcc/arm-none-eabi/10.3.1/thumb/v7e-m/nofp\libgcc.a(libunwind.o)
__gnu_Unwind_Restore_VFP                          c:/users/minec/appdata/local/arduino15/packages/n-able-arduino/tools/gcc-arm-none-eabi/10.3.1-2.1/bin/../lib/gcc/arm-none-eabi/10.3.1/thumb/v7e-m/nofp\libgcc.a(libunwind.o)
                                                  c:/users/minec/appdata/local/arduino15/packages/n-able-arduino/tools/gcc-arm-none-eabi/10.3.1-2.1/bin/../lib/gcc/arm-none-eabi/10.3.1/thumb/v7e-m/nofp\libgcc.a(unwind-arm.o)
__gnu_Unwind_Restore_VFP_D                        c:/users/minec/appdata/local/arduino15/packages/n-able-arduino/tools/gcc-arm-none-eabi/10.3.1-2.1/bin/../lib/gcc/arm-none-eabi/10.3.1/thumb/v7e-m/nofp\libgcc.a(libunwind.o)
                                                  c:/users/minec/appdata/local/arduino15/packages/n-able-arduino/tools/gcc-arm-none-eabi/10.3.1-2.1/bin/../lib/gcc/arm-none-eabi/10.3.1/thumb/v7e-m/nofp\libgcc.a(unwind-arm.o)
__gnu_Unwind_Restore_VFP_D_16_to_31               c:/users/minec/appdata/local/arduino15/packages/n-able-arduino/tools/gcc-arm-none-eabi/10.3.1-2.1/bin/../lib/gcc/arm-none-eabi/10.3.1/thumb/v7e-m/nofp\libgcc.a(libunwind.o)
                                                  c:/users/minec/appdata/local/arduino15/packages/n-able-arduino/tools/gcc-arm-none-eabi/10.3.1-2.1/bin/../lib/gcc/arm-none-eabi/10.3.1/thumb/v7e-m/nofp\libgcc.a(unwind-arm.o)
__gnu_Unwind_Restore_WMMXC                        c:/users/minec/appdata/local/arduino15/packages/n-able-arduino/tools/gcc-arm-none-eabi/10.3.1-2.1/bin/../lib/gcc/arm-none-eabi/10.3.1/thumb/v7e-m/nofp\libgcc.a(libunwind.o)
                                                  c:/users/minec/appdata/local/arduino15/packages/n-able-arduino/tools/gcc-arm-none-eabi/10.3.1-2.1/bin/../lib/gcc/arm-none-eabi/10.3.1/thumb/v7e-m/nofp\libgcc.a(unwind-arm.o)
__gnu_Unwind_Restore_WMMXD                        c:/users/minec/appdata/local/arduino15/packages/n-able-arduino/tools/gcc-arm-none-eabi/10.3.1-2.1/bin/../lib/gcc/arm-none-eabi/10.3.1/thumb/v7e-m/nofp\libgcc.a(libunwind.o)
                                                  c:/users/minec/appdata/local/arduino15/packages/n-able-arduino/tools/gcc-arm-none-eabi/10.3.1-2.1/bin/../lib/gcc/arm-none-eabi/10.3.1/thumb/v7e-m/nofp\libgcc.a(unwind-arm.o)
__gnu_Unwind_Resume                               c:/users/minec/appdata/local/arduino15/packages/n-able-arduino/tools/gcc-arm-none-eabi/10.3.1-2.1/bin/../lib/gcc/arm-none-eabi/10.3.1/thumb/v7e-m/nofp\libgcc.a(unwind-arm.o)
                                                  c:/users/minec/appdata/local/arduino15/packages/n-able-arduino/tools/gcc-arm-none-eabi/10.3.1-2.1/bin/../lib/gcc/arm-none-eabi/10.3.1/thumb/v7e-m/nofp\libgcc.a(libunwind.o)
__gnu_Unwind_Resume_or_Rethrow                    c:/users/minec/appdata/local/arduino15/packages/n-able-arduino/tools/gcc-arm-none-eabi/10.3.1-2.1/bin/../lib/gcc/arm-none-eabi/10.3.1/thumb/v7e-m/nofp\libgcc.a(unwind-arm.o)
                                                  c:/users/minec/appdata/local/arduino15/packages/n-able-arduino/tools/gcc-arm-none-eabi/10.3.1-2.1/bin/../lib/gcc/arm-none-eabi/10.3.1/thumb/v7e-m/nofp\libgcc.a(libunwind.o)
__gnu_Unwind_Save_VFP                             c:/users/minec/appdata/local/arduino15/packages/n-able-arduino/tools/gcc-arm-none-eabi/10.3.1-2.1/bin/../lib/gcc/arm-none-eabi/10.3.1/thumb/v7e-m/nofp\libgcc.a(libunwind.o)
                                                  c:/users/minec/appdata/local/arduino15/packages/n-able-arduino/tools/gcc-arm-none-eabi/10.3.1-2.1/bin/../lib/gcc/arm-none-eabi/10.3.1/thumb/v7e-m/nofp\libgcc.a(unwind-arm.o)
__gnu_Unwind_Save_VFP_D                           c:/users/minec/appdata/local/arduino15/packages/n-able-arduino/tools/gcc-arm-none-eabi/10.3.1-2.1/bin/../lib/gcc/arm-none-eabi/10.3.1/thumb/v7e-m/nofp\libgcc.a(libunwind.o)
                                                  c:/users/minec/appdata/local/arduino15/packages/n-able-arduino/tools/gcc-arm-none-eabi/10.3.1-2.1/bin/../lib/gcc/arm-none-eabi/10.3.1/thumb/v7e-m/nofp\libgcc.a(unwind-arm.o)
__gnu_Unwind_Save_VFP_D_16_to_31                  c:/users/minec/appdata/local/arduino15/packages/n-able-arduino/tools/gcc-arm-none-eabi/10.3.1-2.1/bin/../lib/gcc/arm-none-eabi/10.3.1/thumb/v7e-m/nofp\libgcc.a(libunwind.o)
                                                  c:/users/minec/appdata/local/arduino15/packages/n-able-arduino/tools/gcc-arm-none-eabi/10.3.1-2.1/bin/../lib/gcc/arm-none-eabi/10.3.1/thumb/v7e-m/nofp\libgcc.a(unwind-arm.o)
__gnu_Unwind_Save_WMMXC                           c:/users/minec/appdata/local/arduino15/packages/n-able-arduino/tools/gcc-arm-none-eabi/10.3.1-2.1/bin/../lib/gcc/arm-none-eabi/10.3.1/thumb/v7e-m/nofp\libgcc.a(libunwind.o)
                                                  c:/users/minec/appdata/local/arduino15/packages/n-able-arduino/tools/gcc-arm-none-eabi/10.3.1-2.1/bin/../lib/gcc/arm-none-eabi/10.3.1/thumb/v7e-m/nofp\libgcc.a(unwind-arm.o)
__gnu_Unwind_Save_WMMXD                           c:/users/minec/appdata/local/arduino15/packages/n-able-arduino/tools/gcc-arm-none-eabi/10.3.1-2.1/bin/../lib/gcc/arm-none-eabi/10.3.1/thumb/v7e-m/nofp\libgcc.a(libunwind.o)
                                                  c:/users/minec/appdata/local/arduino15/packages/n-able-arduino/tools/gcc-arm-none-eabi/10.3.1-2.1/bin/../lib/gcc/arm-none-eabi/10.3.1/thumb/v7e-m/nofp\libgcc.a(unwind-arm.o)
__gnu_unwind_execute                              c:/users/minec/appdata/local/arduino15/packages/n-able-arduino/tools/gcc-arm-none-eabi/10.3.1-2.1/bin/../lib/gcc/arm-none-eabi/10.3.1/thumb/v7e-m/nofp\libgcc.a(pr-support.o)
                                                  c:/users/minec/appdata/local/arduino15/packages/n-able-arduino/tools/gcc-arm-none-eabi/10.3.1-2.1/bin/../lib/gcc/arm-none-eabi/10.3.1/thumb/v7e-m/nofp\libgcc.a(unwind-arm.o)
__gnu_unwind_frame                                c:/users/minec/appdata/local/arduino15/packages/n-able-arduino/tools/gcc-arm-none-eabi/10.3.1-2.1/bin/../lib/gcc/arm-none-eabi/10.3.1/thumb/v7e-m/nofp\libgcc.a(pr-support.o)
__gtdf2                                           c:/users/minec/appdata/local/arduino15/packages/n-able-arduino/tools/gcc-arm-none-eabi/10.3.1-2.1/bin/../lib/gcc/arm-none-eabi/10.3.1/thumb/v7e-m/nofp\libgcc.a(_arm_cmpdf2.o)
__init_array_end                                  c:/users/minec/appdata/local/arduino15/packages/n-able-arduino/tools/gcc-arm-none-eabi/10.3.1-2.1/bin/../lib/gcc/arm-none-eabi/10.3.1/../../../../arm-none-eabi/lib/thumb/v7e-m/nofp\libc_nano.a(lib_a-init.o)
__init_array_start                                c:/users/minec/appdata/local/arduino15/packages/n-able-arduino/tools/gcc-arm-none-eabi/10.3.1-2.1/bin/../lib/gcc/arm-none-eabi/10.3.1/../../../../arm-none-eabi/lib/thumb/v7e-m/nofp\libc_nano.a(lib_a-init.o)
__isr_vector                                      C:\Users\minec\AppData\Local\arduino\sketches\CBAA8D2BDA3D583126B4F168E555FB8A/..\..\cores\69cc2d20a9c0859fc6838a3a84e0426a\core.a(gcc_startup_nrf52810.S.o)
                                                  C:\Users\minec\AppData\Local\arduino\sketches\CBAA8D2BDA3D583126B4F168E555FB8A/..\..\cores\69cc2d20a9c0859fc6838a3a84e0426a\core.a(port.c.o)
__ledf2                                           c:/users/minec/appdata/local/arduino15/packages/n-able-arduino/tools/gcc-arm-none-eabi/10.3.1-2.1/bin/../lib/gcc/arm-none-eabi/10.3.1/thumb/v7e-m/nofp\libgcc.a(_arm_cmpdf2.o)
__libc_fini_array                                 c:/users/minec/appdata/local/arduino15/packages/n-able-arduino/tools/gcc-arm-none-eabi/10.3.1-2.1/bin/../lib/gcc/arm-none-eabi/10.3.1/../../../../arm-none-eabi/lib/thumb/v7e-m/nofp/crt0.o
__libc_init_array                                 c:/users/minec/appdata/local/arduino15/packages/n-able-arduino/tools/gcc-arm-none-eabi/10.3.1-2.1/bin/../lib/gcc/arm-none-eabi/10.3.1/../../../../arm-none-eabi/lib/thumb/v7e-m/nofp\libc_nano.a(lib_a-init.o)
                                                  c:/users/minec/appdata/local/arduino15/packages/n-able-arduino/tools/gcc-arm-none-eabi/10.3.1-2.1/bin/../lib/gcc/arm-none-eabi/10.3.1/../../../../arm-none-eabi/lib/thumb/v7e-m/nofp/crt0.o
__ltdf2                                           c:/users/minec/appdata/local/arduino15/packages/n-able-arduino/tools/gcc-arm-none-eabi/10.3.1-2.1/bin/../lib/gcc/arm-none-eabi/10.3.1/thumb/v7e-m/nofp\libgcc.a(_arm_cmpdf2.o)
__muldf3                                          c:/users/minec/appdata/local/arduino15/packages/n-able-arduino/tools/gcc-arm-none-eabi/10.3.1-2.1/bin/../lib/gcc/arm-none-eabi/10.3.1/thumb/v7e-m/nofp\libgcc.a(_arm_muldivdf3.o)
                                                  c:/users/minec/appdata/local/arduino15/packages/n-able-arduino/tools/gcc-arm-none-eabi/10.3.1-2.1/bin/../lib/gcc/arm-none-eabi/10.3.1/thumb/v7e-m/nofp\libgcc.a(_arm_muldf3.o)
__nedf2                                           c:/users/minec/appdata/local/arduino15/packages/n-able-arduino/tools/gcc-arm-none-eabi/10.3.1-2.1/bin/../lib/gcc/arm-none-eabi/10.3.1/thumb/v7e-m/nofp\libgcc.a(_arm_cmpdf2.o)
__on_exit_args                                    c:/users/minec/appdata/local/arduino15/packages/n-able-arduino/tools/gcc-arm-none-eabi/10.3.1-2.1/bin/../lib/gcc/arm-none-eabi/10.3.1/../../../../arm-none-eabi/lib/thumb/v7e-m/nofp\libc_nano.a(lib_a-on_exit_args.o)
                                                  c:/users/minec/appdata/local/arduino15/packages/n-able-arduino/tools/gcc-arm-none-eabi/10.3.1-2.1/bin/../lib/gcc/arm-none-eabi/10.3.1/../../../../arm-none-eabi/lib/thumb/v7e-m/nofp\libc_nano.a(lib_a-cxa_atexit.o)
__preinit_array_end                               c:/users/minec/appdata/local/arduino15/packages/n-able-arduino/tools/gcc-arm-none-eabi/10.3.1-2.1/bin/../lib/gcc/arm-none-eabi/10.3.1/../../../../arm-none-eabi/lib/thumb/v7e-m/nofp\libc_nano.a(lib_a-init.o)
__preinit_array_start                             c:/users/minec/appdata/local/arduino15/packages/n-able-arduino/tools/gcc-arm-none-eabi/10.3.1-2.1/bin/../lib/gcc/arm-none-eabi/10.3.1/../../../../arm-none-eabi/lib/thumb/v7e-m/nofp\libc_nano.a(lib_a-init.o)
__register_exitproc                               c:/users/minec/appdata/local/arduino15/packages/n-able-arduino/tools/gcc-arm-none-eabi/10.3.1-2.1/bin/../lib/gcc/arm-none-eabi/10.3.1/../../../../arm-none-eabi/lib/thumb/v7e-m/nofp\libc_nano.a(lib_a-cxa_atexit.o)
__register_frame_info                             c:/users/minec/appdata/local/arduino15/packages/n-able-arduino/tools/gcc-arm-none-eabi/10.3.1-2.1/bin/../lib/gcc/arm-none-eabi/10.3.1/thumb/v7e-m/nofp/crtbegin.o
__restore_core_regs                               c:/users/minec/appdata/local/arduino15/packages/n-able-arduino/tools/gcc-arm-none-eabi/10.3.1-2.1/bin/../lib/gcc/arm-none-eabi/10.3.1/thumb/v7e-m/nofp\libgcc.a(libunwind.o)
__sf_fake_stderr                                  c:/users/minec/appdata/local/arduino15/packages/n-able-arduino/tools/gcc-arm-none-eabi/10.3.1-2.1/bin/../lib/gcc/arm-none-eabi/10.3.1/../../../../arm-none-eabi/lib/thumb/v7e-m/nofp\libc_nano.a(lib_a-impure.o)
__sf_fake_stdin                                   c:/users/minec/appdata/local/arduino15/packages/n-able-arduino/tools/gcc-arm-none-eabi/10.3.1-2.1/bin/../lib/gcc/arm-none-eabi/10.3.1/../../../../arm-none-eabi/lib/thumb/v7e-m/nofp\libc_nano.a(lib_a-impure.o)
__sf_fake_stdout                                  c:/users/minec/appdata/local/arduino15/packages/n-able-arduino/tools/gcc-arm-none-eabi/10.3.1-2.1/bin/../lib/gcc/arm-none-eabi/10.3.1/../../../../arm-none-eabi/lib/thumb/v7e-m/nofp\libc_nano.a(lib_a-impure.o)
__sigtramp                                        c:/users/minec/appdata/local/arduino15/packages/n-able-arduino/tools/gcc-arm-none-eabi/10.3.1-2.1/bin/../lib/gcc/arm-none-eabi/10.3.1/../../../../arm-none-eabi/lib/thumb/v7e-m/nofp\libc_nano.a(lib_a-signal.o)
__sigtramp_r                                      c:/users/minec/appdata/local/arduino15/packages/n-able-arduino/tools/gcc-arm-none-eabi/10.3.1-2.1/bin/../lib/gcc/arm-none-eabi/10.3.1/../../../../arm-none-eabi/lib/thumb/v7e-m/nofp\libc_nano.a(lib_a-signal.o)
__stack                                           c:/users/minec/appdata/local/arduino15/packages/n-able-arduino/tools/gcc-arm-none-eabi/10.3.1-2.1/bin/../lib/gcc/arm-none-eabi/10.3.1/../../../../arm-none-eabi/lib/thumb/v7e-m/nofp/crt0.o
__subdf3                                          c:/users/minec/appdata/local/arduino15/packages/n-able-arduino/tools/gcc-arm-none-eabi/10.3.1-2.1/bin/../lib/gcc/arm-none-eabi/10.3.1/thumb/v7e-m/nofp\libgcc.a(_arm_addsubdf3.o)
__udivmoddi4                                      c:/users/minec/appdata/local/arduino15/packages/n-able-arduino/tools/gcc-arm-none-eabi/10.3.1-2.1/bin/../lib/gcc/arm-none-eabi/10.3.1/thumb/v7e-m/nofp\libgcc.a(_udivmoddi4.o)
                                                  c:/users/minec/appdata/local/arduino15/packages/n-able-arduino/tools/gcc-arm-none-eabi/10.3.1-2.1/bin/../lib/gcc/arm-none-eabi/10.3.1/thumb/v7e-m/nofp\libgcc.a(_aeabi_uldivmod.o)
                                                  c:/users/minec/appdata/local/arduino15/packages/n-able-arduino/tools/gcc-arm-none-eabi/10.3.1-2.1/bin/../lib/gcc/arm-none-eabi/10.3.1/thumb/v7e-m/nofp\libgcc.a(_aeabi_ldivmod.o)
__unorddf2                                        c:/users/minec/appdata/local/arduino15/packages/n-able-arduino/tools/gcc-arm-none-eabi/10.3.1-2.1/bin/../lib/gcc/arm-none-eabi/10.3.1/thumb/v7e-m/nofp\libgcc.a(_arm_unorddf2.o)
_calloc_r                                         C:\Users\minec\AppData\Local\arduino\sketches\CBAA8D2BDA3D583126B4F168E555FB8A/..\..\cores\69cc2d20a9c0859fc6838a3a84e0426a\core.a(malloc.c.o)
_exit                                             c:/users/minec/appdata/local/arduino15/packages/n-able-arduino/tools/gcc-arm-none-eabi/10.3.1-2.1/bin/../lib/gcc/arm-none-eabi/10.3.1/../../../../arm-none-eabi/lib/thumb/v7e-m/nofp\libnosys.a(_exit.o)
                                                  c:/users/minec/appdata/local/arduino15/packages/n-able-arduino/tools/gcc-arm-none-eabi/10.3.1-2.1/bin/../lib/gcc/arm-none-eabi/10.3.1/../../../../arm-none-eabi/lib/thumb/v7e-m/nofp\libc_nano.a(lib_a-exit.o)
                                                  c:/users/minec/appdata/local/arduino15/packages/n-able-arduino/tools/gcc-arm-none-eabi/10.3.1-2.1/bin/../lib/gcc/arm-none-eabi/10.3.1/../../../../arm-none-eabi/lib/thumb/v7e-m/nofp\libc_nano.a(lib_a-abort.o)
_fini                                             c:/users/minec/appdata/local/arduino15/packages/n-able-arduino/tools/gcc-arm-none-eabi/10.3.1-2.1/bin/../lib/gcc/arm-none-eabi/10.3.1/thumb/v7e-m/nofp/crti.o
_free_r                                           C:\Users\minec\AppData\Local\arduino\sketches\CBAA8D2BDA3D583126B4F168E555FB8A/..\..\cores\69cc2d20a9c0859fc6838a3a84e0426a\core.a(malloc.c.o)
                                                  c:/users/minec/appdata/local/arduino15/packages/n-able-arduino/tools/gcc-arm-none-eabi/10.3.1-2.1/bin/../lib/gcc/arm-none-eabi/10.3.1/../../../../arm-none-eabi/lib/thumb/v7e-m/nofp\libc_nano.a(lib_a-reent.o)
_getpid                                           c:/users/minec/appdata/local/arduino15/packages/n-able-arduino/tools/gcc-arm-none-eabi/10.3.1-2.1/bin/../lib/gcc/arm-none-eabi/10.3.1/../../../../arm-none-eabi/lib/thumb/v7e-m/nofp\libnosys.a(getpid.o)
                                                  c:/users/minec/appdata/local/arduino15/packages/n-able-arduino/tools/gcc-arm-none-eabi/10.3.1-2.1/bin/../lib/gcc/arm-none-eabi/10.3.1/../../../../arm-none-eabi/lib/thumb/v7e-m/nofp\libc_nano.a(lib_a-signalr.o)
_getpid_r                                         c:/users/minec/appdata/local/arduino15/packages/n-able-arduino/tools/gcc-arm-none-eabi/10.3.1-2.1/bin/../lib/gcc/arm-none-eabi/10.3.1/../../../../arm-none-eabi/lib/thumb/v7e-m/nofp\libc_nano.a(lib_a-signalr.o)
                                                  c:/users/minec/appdata/local/arduino15/packages/n-able-arduino/tools/gcc-arm-none-eabi/10.3.1-2.1/bin/../lib/gcc/arm-none-eabi/10.3.1/../../../../arm-none-eabi/lib/thumb/v7e-m/nofp\libc_nano.a(lib_a-signal.o)
_global_impure_ptr                                c:/users/minec/appdata/local/arduino15/packages/n-able-arduino/tools/gcc-arm-none-eabi/10.3.1-2.1/bin/../lib/gcc/arm-none-eabi/10.3.1/../../../../arm-none-eabi/lib/thumb/v7e-m/nofp\libc_nano.a(lib_a-impure.o)
                                                  c:/users/minec/appdata/local/arduino15/packages/n-able-arduino/tools/gcc-arm-none-eabi/10.3.1-2.1/bin/../lib/gcc/arm-none-eabi/10.3.1/../../../../arm-none-eabi/lib/thumb/v7e-m/nofp\libc_nano.a(lib_a-exit.o)
_impure_ptr                                       c:/users/minec/appdata/local/arduino15/packages/n-able-arduino/tools/gcc-arm-none-eabi/10.3.1-2.1/bin/../lib/gcc/arm-none-eabi/10.3.1/../../../../arm-none-eabi/lib/thumb/v7e-m/nofp\libc_nano.a(lib_a-impure.o)
                                                  c:/users/minec/appdata/local/arduino15/packages/n-able-arduino/tools/gcc-arm-none-eabi/10.3.1-2.1/bin/../lib/gcc/arm-none-eabi/10.3.1/../../../../arm-none-eabi/lib/thumb/v7e-m/nofp\libc_nano.a(lib_a-reent.o)
                                                  c:/users/minec/appdata/local/arduino15/packages/n-able-arduino/tools/gcc-arm-none-eabi/10.3.1-2.1/bin/../lib/gcc/arm-none-eabi/10.3.1/../../../../arm-none-eabi/lib/thumb/v7e-m/nofp\libc_nano.a(lib_a-signal.o)
_init                                             c:/users/minec/appdata/local/arduino15/packages/n-able-arduino/tools/gcc-arm-none-eabi/10.3.1-2.1/bin/../lib/gcc/arm-none-eabi/10.3.1/thumb/v7e-m/nofp/crti.o
                                                  c:/users/minec/appdata/local/arduino15/packages/n-able-arduino/tools/gcc-arm-none-eabi/10.3.1-2.1/bin/../lib/gcc/arm-none-eabi/10.3.1/../../../../arm-none-eabi/lib/thumb/v7e-m/nofp\libc_nano.a(lib_a-init.o)
_init_signal                                      c:/users/minec/appdata/local/arduino15/packages/n-able-arduino/tools/gcc-arm-none-eabi/10.3.1-2.1/bin/../lib/gcc/arm-none-eabi/10.3.1/../../../../arm-none-eabi/lib/thumb/v7e-m/nofp\libc_nano.a(lib_a-signal.o)
_init_signal_r                                    c:/users/minec/appdata/local/arduino15/packages/n-able-arduino/tools/gcc-arm-none-eabi/10.3.1-2.1/bin/../lib/gcc/arm-none-eabi/10.3.1/../../../../arm-none-eabi/lib/thumb/v7e-m/nofp\libc_nano.a(lib_a-signal.o)
_kill                                             c:/users/minec/appdata/local/arduino15/packages/n-able-arduino/tools/gcc-arm-none-eabi/10.3.1-2.1/bin/../lib/gcc/arm-none-eabi/10.3.1/../../../../arm-none-eabi/lib/thumb/v7e-m/nofp\libnosys.a(kill.o)
                                                  c:/users/minec/appdata/local/arduino15/packages/n-able-arduino/tools/gcc-arm-none-eabi/10.3.1-2.1/bin/../lib/gcc/arm-none-eabi/10.3.1/../../../../arm-none-eabi/lib/thumb/v7e-m/nofp\libc_nano.a(lib_a-signalr.o)
_kill_r                                           c:/users/minec/appdata/local/arduino15/packages/n-able-arduino/tools/gcc-arm-none-eabi/10.3.1-2.1/bin/../lib/gcc/arm-none-eabi/10.3.1/../../../../arm-none-eabi/lib/thumb/v7e-m/nofp\libc_nano.a(lib_a-signalr.o)
                                                  c:/users/minec/appdata/local/arduino15/packages/n-able-arduino/tools/gcc-arm-none-eabi/10.3.1-2.1/bin/../lib/gcc/arm-none-eabi/10.3.1/../../../../arm-none-eabi/lib/thumb/v7e-m/nofp\libc_nano.a(lib_a-signal.o)
_mainCRTStartup                                   c:/users/minec/appdata/local/arduino15/packages/n-able-arduino/tools/gcc-arm-none-eabi/10.3.1-2.1/bin/../lib/gcc/arm-none-eabi/10.3.1/../../../../arm-none-eabi/lib/thumb/v7e-m/nofp/crt0.o
_malloc_r                                         C:\Users\minec\AppData\Local\arduino\sketches\CBAA8D2BDA3D583126B4F168E555FB8A/..\..\cores\69cc2d20a9c0859fc6838a3a84e0426a\core.a(malloc.c.o)
                                                  c:/users/minec/appdata/local/arduino15/packages/n-able-arduino/tools/gcc-arm-none-eabi/10.3.1-2.1/bin/../lib/gcc/arm-none-eabi/10.3.1/../../../../arm-none-eabi/lib/thumb/v7e-m/nofp\libc_nano.a(lib_a-signal.o)
_putchar                                          C:\Users\minec\AppData\Local\arduino\sketches\CBAA8D2BDA3D583126B4F168E555FB8A/..\..\cores\69cc2d20a9c0859fc6838a3a84e0426a\core.a(putchar.cpp.o)
                                                  C:\Users\minec\AppData\Local\arduino\sketches\CBAA8D2BDA3D583126B4F168E555FB8A/..\..\cores\69cc2d20a9c0859fc6838a3a84e0426a\core.a(printf.c.o)
_raise_r                                          c:/users/minec/appdata/local/arduino15/packages/n-able-arduino/tools/gcc-arm-none-eabi/10.3.1-2.1/bin/../lib/gcc/arm-none-eabi/10.3.1/../../../../arm-none-eabi/lib/thumb/v7e-m/nofp\libc_nano.a(lib_a-signal.o)
_realloc_r                                        C:\Users\minec\AppData\Local\arduino\sketches\CBAA8D2BDA3D583126B4F168E555FB8A/..\..\cores\69cc2d20a9c0859fc6838a3a84e0426a\core.a(malloc.c.o)
_reclaim_reent                                    c:/users/minec/appdata/local/arduino15/packages/n-able-arduino/tools/gcc-arm-none-eabi/10.3.1-2.1/bin/../lib/gcc/arm-none-eabi/10.3.1/../../../../arm-none-eabi/lib/thumb/v7e-m/nofp\libc_nano.a(lib_a-reent.o)
_signal_r                                         c:/users/minec/appdata/local/arduino15/packages/n-able-arduino/tools/gcc-arm-none-eabi/10.3.1-2.1/bin/../lib/gcc/arm-none-eabi/10.3.1/../../../../arm-none-eabi/lib/thumb/v7e-m/nofp\libc_nano.a(lib_a-signal.o)
_stack_init                                       c:/users/minec/appdata/local/arduino15/packages/n-able-arduino/tools/gcc-arm-none-eabi/10.3.1-2.1/bin/../lib/gcc/arm-none-eabi/10.3.1/../../../../arm-none-eabi/lib/thumb/v7e-m/nofp/crt0.o
_start                                            c:/users/minec/appdata/local/arduino15/packages/n-able-arduino/tools/gcc-arm-none-eabi/10.3.1-2.1/bin/../lib/gcc/arm-none-eabi/10.3.1/../../../../arm-none-eabi/lib/thumb/v7e-m/nofp/crt0.o
                                                  C:\Users\minec\AppData\Local\arduino\sketches\CBAA8D2BDA3D583126B4F168E555FB8A/..\..\cores\69cc2d20a9c0859fc6838a3a84e0426a\core.a(gcc_startup_nrf52810.S.o)
_write                                            C:\Users\minec\AppData\Local\arduino\sketches\CBAA8D2BDA3D583126B4F168E555FB8A/..\..\cores\69cc2d20a9c0859fc6838a3a84e0426a\core.a(putchar.cpp.o)
abort                                             c:/users/minec/appdata/local/arduino15/packages/n-able-arduino/tools/gcc-arm-none-eabi/10.3.1-2.1/bin/../lib/gcc/arm-none-eabi/10.3.1/../../../../arm-none-eabi/lib/thumb/v7e-m/nofp\libc_nano.a(lib_a-abort.o)
                                                  c:/users/minec/appdata/local/arduino15/packages/n-able-arduino/tools/gcc-arm-none-eabi/10.3.1-2.1/bin/../lib/gcc/arm-none-eabi/10.3.1/thumb/v7e-m/nofp\libgcc.a(pr-support.o)
                                                  c:/users/minec/appdata/local/arduino15/packages/n-able-arduino/tools/gcc-arm-none-eabi/10.3.1-2.1/bin/../lib/gcc/arm-none-eabi/10.3.1/thumb/v7e-m/nofp\libgcc.a(unwind-arm.o)
apply_scaling                                     C:\Users\minec\AppData\Local\arduino\sketches\CBAA8D2BDA3D583126B4F168E555FB8A/..\..\cores\69cc2d20a9c0859fc6838a3a84e0426a\core.a(printf.c.o)
atexit                                            c:/users/minec/appdata/local/arduino15/packages/n-able-arduino/tools/gcc-arm-none-eabi/10.3.1-2.1/bin/../lib/gcc/arm-none-eabi/10.3.1/../../../../arm-none-eabi/lib/thumb/v7e-m/nofp/crt0.o
calloc                                            C:\Users\minec\AppData\Local\arduino\sketches\CBAA8D2BDA3D583126B4F168E555FB8A/..\..\cores\69cc2d20a9c0859fc6838a3a84e0426a\core.a(malloc.c.o)
cfree                                             C:\Users\minec\AppData\Local\arduino\sketches\CBAA8D2BDA3D583126B4F168E555FB8A/..\..\cores\69cc2d20a9c0859fc6838a3a84e0426a\core.a(malloc.c.o)
check_and_report_fault()                          C:\Users\minec\AppData\Local\arduino\sketches\CBAA8D2BDA3D583126B4F168E555FB8A/..\..\cores\69cc2d20a9c0859fc6838a3a84e0426a\core.a(debug_utils.cpp.o)
cleanup_glue                                      c:/users/minec/appdata/local/arduino15/packages/n-able-arduino/tools/gcc-arm-none-eabi/10.3.1-2.1/bin/../lib/gcc/arm-none-eabi/10.3.1/../../../../arm-none-eabi/lib/thumb/v7e-m/nofp\libc_nano.a(lib_a-reent.o)
delay                                             C:\Users\minec\AppData\Local\arduino\sketches\CBAA8D2BDA3D583126B4F168E555FB8A/..\..\cores\69cc2d20a9c0859fc6838a3a84e0426a\core.a(delay.c.o)
                                                  C:\Users\minec\AppData\Local\arduino\sketches\CBAA8D2BDA3D583126B4F168E555FB8A/..\..\cores\69cc2d20a9c0859fc6838a3a84e0426a\core.a(debug_utils.cpp.o)
                                                  C:\Users\minec\AppData\Local\arduino\sketches\CBAA8D2BDA3D583126B4F168E555FB8A/..\..\cores\69cc2d20a9c0859fc6838a3a84e0426a\core.a(rtos.cpp.o)
                                                  C:\Users\minec\AppData\Local\arduino\sketches\CBAA8D2BDA3D583126B4F168E555FB8A\sketch\BlinkLEDs.ino.cpp.o
digitalRead                                       C:\Users\minec\AppData\Local\arduino\sketches\CBAA8D2BDA3D583126B4F168E555FB8A/..\..\cores\69cc2d20a9c0859fc6838a3a84e0426a\core.a(wiring_digital.c.o)
digitalToggle                                     C:\Users\minec\AppData\Local\arduino\sketches\CBAA8D2BDA3D583126B4F168E555FB8A/..\..\cores\69cc2d20a9c0859fc6838a3a84e0426a\core.a(wiring_digital.c.o)
digitalWrite                                      C:\Users\minec\AppData\Local\arduino\sketches\CBAA8D2BDA3D583126B4F168E555FB8A/..\..\cores\69cc2d20a9c0859fc6838a3a84e0426a\core.a(wiring_digital.c.o)
                                                  C:\Users\minec\AppData\Local\arduino\sketches\CBAA8D2BDA3D583126B4F168E555FB8A\sketch\BlinkLEDs.ino.cpp.o
dump_call_stack()                                 C:\Users\minec\AppData\Local\arduino\sketches\CBAA8D2BDA3D583126B4F168E555FB8A/..\..\cores\69cc2d20a9c0859fc6838a3a84e0426a\core.a(debug_utils.cpp.o)
                                                  C:\Users\minec\AppData\Local\arduino\sketches\CBAA8D2BDA3D583126B4F168E555FB8A/..\..\cores\69cc2d20a9c0859fc6838a3a84e0426a\core.a(rtos.cpp.o)
eTaskConfirmSleepModeStatus                       C:\Users\minec\AppData\Local\arduino\sketches\CBAA8D2BDA3D583126B4F168E555FB8A/..\..\cores\69cc2d20a9c0859fc6838a3a84e0426a\core.a(tasks.c.o)
                                                  C:\Users\minec\AppData\Local\arduino\sketches\CBAA8D2BDA3D583126B4F168E555FB8A/..\..\cores\69cc2d20a9c0859fc6838a3a84e0426a\core.a(port_nrf52_systick.c.o)
eTaskGetState                                     C:\Users\minec\AppData\Local\arduino\sketches\CBAA8D2BDA3D583126B4F168E555FB8A/..\..\cores\69cc2d20a9c0859fc6838a3a84e0426a\core.a(tasks.c.o)
enterSerialDfu                                    C:\Users\minec\AppData\Local\arduino\sketches\CBAA8D2BDA3D583126B4F168E555FB8A/..\..\cores\69cc2d20a9c0859fc6838a3a84e0426a\core.a(wiring.c.o)
errno                                             c:/users/minec/appdata/local/arduino15/packages/n-able-arduino/tools/gcc-arm-none-eabi/10.3.1-2.1/bin/../lib/gcc/arm-none-eabi/10.3.1/../../../../arm-none-eabi/lib/thumb/v7e-m/nofp\libc_nano.a(lib_a-reent.o)
                                                  c:/users/minec/appdata/local/arduino15/packages/n-able-arduino/tools/gcc-arm-none-eabi/10.3.1-2.1/bin/../lib/gcc/arm-none-eabi/10.3.1/../../../../arm-none-eabi/lib/thumb/v7e-m/nofp\libnosys.a(kill.o)
                                                  c:/users/minec/appdata/local/arduino15/packages/n-able-arduino/tools/gcc-arm-none-eabi/10.3.1-2.1/bin/../lib/gcc/arm-none-eabi/10.3.1/../../../../arm-none-eabi/lib/thumb/v7e-m/nofp\libnosys.a(getpid.o)
                                                  c:/users/minec/appdata/local/arduino15/packages/n-able-arduino/tools/gcc-arm-none-eabi/10.3.1-2.1/bin/../lib/gcc/arm-none-eabi/10.3.1/../../../../arm-none-eabi/lib/thumb/v7e-m/nofp\libc_nano.a(lib_a-signalr.o)
exit                                              c:/users/minec/appdata/local/arduino15/packages/n-able-arduino/tools/gcc-arm-none-eabi/10.3.1-2.1/bin/../lib/gcc/arm-none-eabi/10.3.1/../../../../arm-none-eabi/lib/thumb/v7e-m/nofp\libc_nano.a(lib_a-exit.o)
                                                  c:/users/minec/appdata/local/arduino15/packages/n-able-arduino/tools/gcc-arm-none-eabi/10.3.1-2.1/bin/../lib/gcc/arm-none-eabi/10.3.1/../../../../arm-none-eabi/lib/thumb/v7e-m/nofp/crt0.o
fctprintf                                         C:\Users\minec\AppData\Local\arduino\sketches\CBAA8D2BDA3D583126B4F168E555FB8A/..\..\cores\69cc2d20a9c0859fc6838a3a84e0426a\core.a(printf.c.o)
free                                              C:\Users\minec\AppData\Local\arduino\sketches\CBAA8D2BDA3D583126B4F168E555FB8A/..\..\cores\69cc2d20a9c0859fc6838a3a84e0426a\core.a(malloc.c.o)
g_ADigitalPinMap                                  C:\Users\minec\AppData\Local\arduino\sketches\CBAA8D2BDA3D583126B4F168E555FB8A\core\variant.cpp.o
                                                  C:\Users\minec\AppData\Local\arduino\sketches\CBAA8D2BDA3D583126B4F168E555FB8A/..\..\cores\69cc2d20a9c0859fc6838a3a84e0426a\core.a(Uart.cpp.o)
                                                  C:\Users\minec\AppData\Local\arduino\sketches\CBAA8D2BDA3D583126B4F168E555FB8A/..\..\cores\69cc2d20a9c0859fc6838a3a84e0426a\core.a(wiring_digital.c.o)
getMainLoopTaskHandle()                           C:\Users\minec\AppData\Local\arduino\sketches\CBAA8D2BDA3D583126B4F168E555FB8A/..\..\cores\69cc2d20a9c0859fc6838a3a84e0426a\core.a(main.cpp.o)
                                                  C:\Users\minec\AppData\Local\arduino\sketches\CBAA8D2BDA3D583126B4F168E555FB8A/..\..\cores\69cc2d20a9c0859fc6838a3a84e0426a\core.a(rtos.cpp.o)
getResetReason                                    C:\Users\minec\AppData\Local\arduino\sketches\CBAA8D2BDA3D583126B4F168E555FB8A/..\..\cores\69cc2d20a9c0859fc6838a3a84e0426a\core.a(wiring.c.o)
hardware_init_hook                                c:/users/minec/appdata/local/arduino15/packages/n-able-arduino/tools/gcc-arm-none-eabi/10.3.1-2.1/bin/../lib/gcc/arm-none-eabi/10.3.1/../../../../arm-none-eabi/lib/thumb/v7e-m/nofp/crt0.o
hw_clock_hfxo_release                             C:\Users\minec\AppData\Local\arduino\sketches\CBAA8D2BDA3D583126B4F168E555FB8A/..\..\cores\69cc2d20a9c0859fc6838a3a84e0426a\core.a(wiring.c.o)
hw_clock_hfxo_request                             C:\Users\minec\AppData\Local\arduino\sketches\CBAA8D2BDA3D583126B4F168E555FB8A/..\..\cores\69cc2d20a9c0859fc6838a3a84e0426a\core.a(wiring.c.o)
init                                              C:\Users\minec\AppData\Local\arduino\sketches\CBAA8D2BDA3D583126B4F168E555FB8A/..\..\cores\69cc2d20a9c0859fc6838a3a84e0426a\core.a(wiring.c.o)
                                                  C:\Users\minec\AppData\Local\arduino\sketches\CBAA8D2BDA3D583126B4F168E555FB8A/..\..\cores\69cc2d20a9c0859fc6838a3a84e0426a\core.a(main.cpp.o)
initVariant()                                     C:\Users\minec\AppData\Local\arduino\sketches\CBAA8D2BDA3D583126B4F168E555FB8A/..\..\cores\69cc2d20a9c0859fc6838a3a84e0426a\core.a(main.cpp.o)
loop                                              C:\Users\minec\AppData\Local\arduino\sketches\CBAA8D2BDA3D583126B4F168E555FB8A\sketch\BlinkLEDs.ino.cpp.o
                                                  C:\Users\minec\AppData\Local\arduino\sketches\CBAA8D2BDA3D583126B4F168E555FB8A/..\..\cores\69cc2d20a9c0859fc6838a3a84e0426a\core.a(main.cpp.o)
loopTask(void*)                                   C:\Users\minec\AppData\Local\arduino\sketches\CBAA8D2BDA3D583126B4F168E555FB8A/..\..\cores\69cc2d20a9c0859fc6838a3a84e0426a\core.a(main.cpp.o)
main                                              C:\Users\minec\AppData\Local\arduino\sketches\CBAA8D2BDA3D583126B4F168E555FB8A/..\..\cores\69cc2d20a9c0859fc6838a3a84e0426a\core.a(main.cpp.o)
                                                  c:/users/minec/appdata/local/arduino15/packages/n-able-arduino/tools/gcc-arm-none-eabi/10.3.1-2.1/bin/../lib/gcc/arm-none-eabi/10.3.1/../../../../arm-none-eabi/lib/thumb/v7e-m/nofp/crt0.o
mallinfo                                          C:\Users\minec\AppData\Local\arduino\sketches\CBAA8D2BDA3D583126B4F168E555FB8A/..\..\cores\69cc2d20a9c0859fc6838a3a84e0426a\core.a(malloc.c.o)
malloc                                            C:\Users\minec\AppData\Local\arduino\sketches\CBAA8D2BDA3D583126B4F168E555FB8A/..\..\cores\69cc2d20a9c0859fc6838a3a84e0426a\core.a(malloc.c.o)
                                                  C:\Users\minec\AppData\Local\arduino\sketches\CBAA8D2BDA3D583126B4F168E555FB8A/..\..\cores\69cc2d20a9c0859fc6838a3a84e0426a\core.a(putchar.cpp.o)
malloc_stats                                      C:\Users\minec\AppData\Local\arduino\sketches\CBAA8D2BDA3D583126B4F168E555FB8A/..\..\cores\69cc2d20a9c0859fc6838a3a84e0426a\core.a(malloc.c.o)
malloc_trim                                       C:\Users\minec\AppData\Local\arduino\sketches\CBAA8D2BDA3D583126B4F168E555FB8A/..\..\cores\69cc2d20a9c0859fc6838a3a84e0426a\core.a(malloc.c.o)
malloc_usable_size                                C:\Users\minec\AppData\Local\arduino\sketches\CBAA8D2BDA3D583126B4F168E555FB8A/..\..\cores\69cc2d20a9c0859fc6838a3a84e0426a\core.a(malloc.c.o)
mallopt                                           C:\Users\minec\AppData\Local\arduino\sketches\CBAA8D2BDA3D583126B4F168E555FB8A/..\..\cores\69cc2d20a9c0859fc6838a3a84e0426a\core.a(malloc.c.o)
memcpy                                            c:/users/minec/appdata/local/arduino15/packages/n-able-arduino/tools/gcc-arm-none-eabi/10.3.1-2.1/bin/../lib/gcc/arm-none-eabi/10.3.1/../../../../arm-none-eabi/lib/thumb/v7e-m/nofp\libc_nano.a(lib_a-memcpy-stub.o)
                                                  c:/users/minec/appdata/local/arduino15/packages/n-able-arduino/tools/gcc-arm-none-eabi/10.3.1-2.1/bin/../lib/gcc/arm-none-eabi/10.3.1/thumb/v7e-m/nofp\libgcc.a(unwind-arm.o)
                                                  C:\Users\minec\AppData\Local\arduino\sketches\CBAA8D2BDA3D583126B4F168E555FB8A/..\..\cores\69cc2d20a9c0859fc6838a3a84e0426a\core.a(queue.c.o)
                                                  C:\Users\minec\AppData\Local\arduino\sketches\CBAA8D2BDA3D583126B4F168E555FB8A/..\..\cores\69cc2d20a9c0859fc6838a3a84e0426a\core.a(heap_4.c.o)
memset                                            c:/users/minec/appdata/local/arduino15/packages/n-able-arduino/tools/gcc-arm-none-eabi/10.3.1-2.1/bin/../lib/gcc/arm-none-eabi/10.3.1/../../../../arm-none-eabi/lib/thumb/v7e-m/nofp\libc_nano.a(lib_a-memset.o)
                                                  C:\Users\minec\AppData\Local\arduino\sketches\CBAA8D2BDA3D583126B4F168E555FB8A/..\..\cores\69cc2d20a9c0859fc6838a3a84e0426a\core.a(malloc.c.o)
                                                  C:\Users\minec\AppData\Local\arduino\sketches\CBAA8D2BDA3D583126B4F168E555FB8A/..\..\cores\69cc2d20a9c0859fc6838a3a84e0426a\core.a(RingBuffer.cpp.o)
                                                  C:\Users\minec\AppData\Local\arduino\sketches\CBAA8D2BDA3D583126B4F168E555FB8A/..\..\cores\69cc2d20a9c0859fc6838a3a84e0426a\core.a(heap_4.c.o)
                                                  C:\Users\minec\AppData\Local\arduino\sketches\CBAA8D2BDA3D583126B4F168E555FB8A/..\..\cores\69cc2d20a9c0859fc6838a3a84e0426a\core.a(tasks.c.o)
                                                  c:/users/minec/appdata/local/arduino15/packages/n-able-arduino/tools/gcc-arm-none-eabi/10.3.1-2.1/bin/../lib/gcc/arm-none-eabi/10.3.1/../../../../arm-none-eabi/lib/thumb/v7e-m/nofp/crt0.o
micros                                            C:\Users\minec\AppData\Local\arduino\sketches\CBAA8D2BDA3D583126B4F168E555FB8A/..\..\cores\69cc2d20a9c0859fc6838a3a84e0426a\core.a(delay.c.o)
millis                                            C:\Users\minec\AppData\Local\arduino\sketches\CBAA8D2BDA3D583126B4F168E555FB8A/..\..\cores\69cc2d20a9c0859fc6838a3a84e0426a\core.a(delay.c.o)
nableRtos::getBleHostTaskHwm()                    C:\Users\minec\AppData\Local\arduino\sketches\CBAA8D2BDA3D583126B4F168E555FB8A/..\..\cores\69cc2d20a9c0859fc6838a3a84e0426a\core.a(rtos.cpp.o)
nableRtos::getBleLLTaskHwm()                      C:\Users\minec\AppData\Local\arduino\sketches\CBAA8D2BDA3D583126B4F168E555FB8A/..\..\cores\69cc2d20a9c0859fc6838a3a84e0426a\core.a(rtos.cpp.o)
nableRtos::getFreeHeap()                          C:\Users\minec\AppData\Local\arduino\sketches\CBAA8D2BDA3D583126B4F168E555FB8A/..\..\cores\69cc2d20a9c0859fc6838a3a84e0426a\core.a(rtos.cpp.o)
nableRtos::getIdleTaskHwm()                       C:\Users\minec\AppData\Local\arduino\sketches\CBAA8D2BDA3D583126B4F168E555FB8A/..\..\cores\69cc2d20a9c0859fc6838a3a84e0426a\core.a(rtos.cpp.o)
nableRtos::getIsrStackHwm()                       C:\Users\minec\AppData\Local\arduino\sketches\CBAA8D2BDA3D583126B4F168E555FB8A/..\..\cores\69cc2d20a9c0859fc6838a3a84e0426a\core.a(rtos.cpp.o)
nableRtos::getMainLoopTaskHandle()                C:\Users\minec\AppData\Local\arduino\sketches\CBAA8D2BDA3D583126B4F168E555FB8A/..\..\cores\69cc2d20a9c0859fc6838a3a84e0426a\core.a(rtos.cpp.o)
nableRtos::getMainTaskHwm()                       C:\Users\minec\AppData\Local\arduino\sketches\CBAA8D2BDA3D583126B4F168E555FB8A/..\..\cores\69cc2d20a9c0859fc6838a3a84e0426a\core.a(rtos.cpp.o)
nableRtos::getTimerTaskHwm()                      C:\Users\minec\AppData\Local\arduino\sketches\CBAA8D2BDA3D583126B4F168E555FB8A/..\..\cores\69cc2d20a9c0859fc6838a3a84e0426a\core.a(rtos.cpp.o)
nableRtos::~nableRtos()                           C:\Users\minec\AppData\Local\arduino\sketches\CBAA8D2BDA3D583126B4F168E555FB8A/..\..\cores\69cc2d20a9c0859fc6838a3a84e0426a\core.a(rtos.cpp.o)
nableRtos::~nableRtos()                           C:\Users\minec\AppData\Local\arduino\sketches\CBAA8D2BDA3D583126B4F168E555FB8A/..\..\cores\69cc2d20a9c0859fc6838a3a84e0426a\core.a(rtos.cpp.o)
nimble_port_freertos_get_hs_hwm                   C:\Users\minec\AppData\Local\arduino\sketches\CBAA8D2BDA3D583126B4F168E555FB8A/..\..\cores\69cc2d20a9c0859fc6838a3a84e0426a\core.a(rtos.cpp.o)
nimble_port_freertos_get_ll_hwm                   C:\Users\minec\AppData\Local\arduino\sketches\CBAA8D2BDA3D583126B4F168E555FB8A/..\..\cores\69cc2d20a9c0859fc6838a3a84e0426a\core.a(rtos.cpp.o)
nrfx_clock_calibration_start                      C:\Users\minec\AppData\Local\arduino\sketches\CBAA8D2BDA3D583126B4F168E555FB8A/..\..\cores\69cc2d20a9c0859fc6838a3a84e0426a\core.a(nrfx_clock.c.o)
nrfx_clock_calibration_timer_start                C:\Users\minec\AppData\Local\arduino\sketches\CBAA8D2BDA3D583126B4F168E555FB8A/..\..\cores\69cc2d20a9c0859fc6838a3a84e0426a\core.a(nrfx_clock.c.o)
nrfx_clock_calibration_timer_stop                 C:\Users\minec\AppData\Local\arduino\sketches\CBAA8D2BDA3D583126B4F168E555FB8A/..\..\cores\69cc2d20a9c0859fc6838a3a84e0426a\core.a(nrfx_clock.c.o)
nrfx_clock_disable                                C:\Users\minec\AppData\Local\arduino\sketches\CBAA8D2BDA3D583126B4F168E555FB8A/..\..\cores\69cc2d20a9c0859fc6838a3a84e0426a\core.a(nrfx_clock.c.o)
nrfx_clock_enable                                 C:\Users\minec\AppData\Local\arduino\sketches\CBAA8D2BDA3D583126B4F168E555FB8A/..\..\cores\69cc2d20a9c0859fc6838a3a84e0426a\core.a(nrfx_clock.c.o)
                                                  C:\Users\minec\AppData\Local\arduino\sketches\CBAA8D2BDA3D583126B4F168E555FB8A/..\..\cores\69cc2d20a9c0859fc6838a3a84e0426a\core.a(wiring.c.o)
nrfx_clock_init                                   C:\Users\minec\AppData\Local\arduino\sketches\CBAA8D2BDA3D583126B4F168E555FB8A/..\..\cores\69cc2d20a9c0859fc6838a3a84e0426a\core.a(nrfx_clock.c.o)
                                                  C:\Users\minec\AppData\Local\arduino\sketches\CBAA8D2BDA3D583126B4F168E555FB8A/..\..\cores\69cc2d20a9c0859fc6838a3a84e0426a\core.a(wiring.c.o)
nrfx_clock_irq_enabled                            C:\Users\minec\AppData\Local\arduino\sketches\CBAA8D2BDA3D583126B4F168E555FB8A/..\..\cores\69cc2d20a9c0859fc6838a3a84e0426a\core.a(nrfx_clock.c.o)
                                                  C:\Users\minec\AppData\Local\arduino\sketches\CBAA8D2BDA3D583126B4F168E555FB8A/..\..\cores\69cc2d20a9c0859fc6838a3a84e0426a\core.a(nrfx_power.c.o)
nrfx_clock_irq_handler                            C:\Users\minec\AppData\Local\arduino\sketches\CBAA8D2BDA3D583126B4F168E555FB8A/..\..\cores\69cc2d20a9c0859fc6838a3a84e0426a\core.a(nrfx_clock.c.o)
                                                  C:\Users\minec\AppData\Local\arduino\sketches\CBAA8D2BDA3D583126B4F168E555FB8A/..\..\cores\69cc2d20a9c0859fc6838a3a84e0426a\core.a(nrfx_power.c.o)
nrfx_clock_is_calibrating                         C:\Users\minec\AppData\Local\arduino\sketches\CBAA8D2BDA3D583126B4F168E555FB8A/..\..\cores\69cc2d20a9c0859fc6838a3a84e0426a\core.a(nrfx_clock.c.o)
nrfx_clock_start                                  C:\Users\minec\AppData\Local\arduino\sketches\CBAA8D2BDA3D583126B4F168E555FB8A/..\..\cores\69cc2d20a9c0859fc6838a3a84e0426a\core.a(nrfx_clock.c.o)
                                                  C:\Users\minec\AppData\Local\arduino\sketches\CBAA8D2BDA3D583126B4F168E555FB8A/..\..\cores\69cc2d20a9c0859fc6838a3a84e0426a\core.a(wiring.c.o)
nrfx_clock_stop                                   C:\Users\minec\AppData\Local\arduino\sketches\CBAA8D2BDA3D583126B4F168E555FB8A/..\..\cores\69cc2d20a9c0859fc6838a3a84e0426a\core.a(nrfx_clock.c.o)
                                                  C:\Users\minec\AppData\Local\arduino\sketches\CBAA8D2BDA3D583126B4F168E555FB8A/..\..\cores\69cc2d20a9c0859fc6838a3a84e0426a\core.a(wiring.c.o)
nrfx_clock_uninit                                 C:\Users\minec\AppData\Local\arduino\sketches\CBAA8D2BDA3D583126B4F168E555FB8A/..\..\cores\69cc2d20a9c0859fc6838a3a84e0426a\core.a(nrfx_clock.c.o)
nrfx_power_init                                   C:\Users\minec\AppData\Local\arduino\sketches\CBAA8D2BDA3D583126B4F168E555FB8A/..\..\cores\69cc2d20a9c0859fc6838a3a84e0426a\core.a(nrfx_power.c.o)
nrfx_power_irq_enabled                            C:\Users\minec\AppData\Local\arduino\sketches\CBAA8D2BDA3D583126B4F168E555FB8A/..\..\cores\69cc2d20a9c0859fc6838a3a84e0426a\core.a(nrfx_power.c.o)
                                                  C:\Users\minec\AppData\Local\arduino\sketches\CBAA8D2BDA3D583126B4F168E555FB8A/..\..\cores\69cc2d20a9c0859fc6838a3a84e0426a\core.a(nrfx_clock.c.o)
nrfx_power_irq_handler                            C:\Users\minec\AppData\Local\arduino\sketches\CBAA8D2BDA3D583126B4F168E555FB8A/..\..\cores\69cc2d20a9c0859fc6838a3a84e0426a\core.a(nrfx_power.c.o)
nrfx_power_pof_disable                            C:\Users\minec\AppData\Local\arduino\sketches\CBAA8D2BDA3D583126B4F168E555FB8A/..\..\cores\69cc2d20a9c0859fc6838a3a84e0426a\core.a(nrfx_power.c.o)
nrfx_power_pof_enable                             C:\Users\minec\AppData\Local\arduino\sketches\CBAA8D2BDA3D583126B4F168E555FB8A/..\..\cores\69cc2d20a9c0859fc6838a3a84e0426a\core.a(nrfx_power.c.o)
nrfx_power_pof_handler_get                        C:\Users\minec\AppData\Local\arduino\sketches\CBAA8D2BDA3D583126B4F168E555FB8A/..\..\cores\69cc2d20a9c0859fc6838a3a84e0426a\core.a(nrfx_power.c.o)
nrfx_power_pof_init                               C:\Users\minec\AppData\Local\arduino\sketches\CBAA8D2BDA3D583126B4F168E555FB8A/..\..\cores\69cc2d20a9c0859fc6838a3a84e0426a\core.a(nrfx_power.c.o)
nrfx_power_pof_uninit                             C:\Users\minec\AppData\Local\arduino\sketches\CBAA8D2BDA3D583126B4F168E555FB8A/..\..\cores\69cc2d20a9c0859fc6838a3a84e0426a\core.a(nrfx_power.c.o)
nrfx_power_sleepevt_disable                       C:\Users\minec\AppData\Local\arduino\sketches\CBAA8D2BDA3D583126B4F168E555FB8A/..\..\cores\69cc2d20a9c0859fc6838a3a84e0426a\core.a(nrfx_power.c.o)
nrfx_power_sleepevt_enable                        C:\Users\minec\AppData\Local\arduino\sketches\CBAA8D2BDA3D583126B4F168E555FB8A/..\..\cores\69cc2d20a9c0859fc6838a3a84e0426a\core.a(nrfx_power.c.o)
nrfx_power_sleepevt_init                          C:\Users\minec\AppData\Local\arduino\sketches\CBAA8D2BDA3D583126B4F168E555FB8A/..\..\cores\69cc2d20a9c0859fc6838a3a84e0426a\core.a(nrfx_power.c.o)
nrfx_power_sleepevt_uninit                        C:\Users\minec\AppData\Local\arduino\sketches\CBAA8D2BDA3D583126B4F168E555FB8A/..\..\cores\69cc2d20a9c0859fc6838a3a84e0426a\core.a(nrfx_power.c.o)
nrfx_power_uninit                                 C:\Users\minec\AppData\Local\arduino\sketches\CBAA8D2BDA3D583126B4F168E555FB8A/..\..\cores\69cc2d20a9c0859fc6838a3a84e0426a\core.a(nrfx_power.c.o)
operator delete(void*)                            C:\Users\minec\AppData\Local\arduino\sketches\CBAA8D2BDA3D583126B4F168E555FB8A/..\..\cores\69cc2d20a9c0859fc6838a3a84e0426a\core.a(new.cpp.o)
operator delete(void*, unsigned int)              C:\Users\minec\AppData\Local\arduino\sketches\CBAA8D2BDA3D583126B4F168E555FB8A/..\..\cores\69cc2d20a9c0859fc6838a3a84e0426a\core.a(new.cpp.o)
                                                  C:\Users\minec\AppData\Local\arduino\sketches\CBAA8D2BDA3D583126B4F168E555FB8A/..\..\cores\69cc2d20a9c0859fc6838a3a84e0426a\core.a(Uart.cpp.o)
operator delete[](void*)                          C:\Users\minec\AppData\Local\arduino\sketches\CBAA8D2BDA3D583126B4F168E555FB8A/..\..\cores\69cc2d20a9c0859fc6838a3a84e0426a\core.a(new.cpp.o)
operator delete[](void*, unsigned int)            C:\Users\minec\AppData\Local\arduino\sketches\CBAA8D2BDA3D583126B4F168E555FB8A/..\..\cores\69cc2d20a9c0859fc6838a3a84e0426a\core.a(new.cpp.o)
operator new(unsigned int)                        C:\Users\minec\AppData\Local\arduino\sketches\CBAA8D2BDA3D583126B4F168E555FB8A/..\..\cores\69cc2d20a9c0859fc6838a3a84e0426a\core.a(new.cpp.o)
operator new[](unsigned int)                      C:\Users\minec\AppData\Local\arduino\sketches\CBAA8D2BDA3D583126B4F168E555FB8A/..\..\cores\69cc2d20a9c0859fc6838a3a84e0426a\core.a(new.cpp.o)
pcTaskGetName                                     C:\Users\minec\AppData\Local\arduino\sketches\CBAA8D2BDA3D583126B4F168E555FB8A/..\..\cores\69cc2d20a9c0859fc6838a3a84e0426a\core.a(tasks.c.o)
pcTimerGetName                                    C:\Users\minec\AppData\Local\arduino\sketches\CBAA8D2BDA3D583126B4F168E555FB8A/..\..\cores\69cc2d20a9c0859fc6838a3a84e0426a\core.a(timers.c.o)
pinMode                                           C:\Users\minec\AppData\Local\arduino\sketches\CBAA8D2BDA3D583126B4F168E555FB8A/..\..\cores\69cc2d20a9c0859fc6838a3a84e0426a\core.a(wiring_digital.c.o)
                                                  C:\Users\minec\AppData\Local\arduino\sketches\CBAA8D2BDA3D583126B4F168E555FB8A\sketch\BlinkLEDs.ino.cpp.o
printf                                            C:\Users\minec\AppData\Local\arduino\sketches\CBAA8D2BDA3D583126B4F168E555FB8A/..\..\cores\69cc2d20a9c0859fc6838a3a84e0426a\core.a(printf.c.o)
pvPortCalloc                                      C:\Users\minec\AppData\Local\arduino\sketches\CBAA8D2BDA3D583126B4F168E555FB8A/..\..\cores\69cc2d20a9c0859fc6838a3a84e0426a\core.a(heap_4.c.o)
                                                  C:\Users\minec\AppData\Local\arduino\sketches\CBAA8D2BDA3D583126B4F168E555FB8A/..\..\cores\69cc2d20a9c0859fc6838a3a84e0426a\core.a(malloc.c.o)
pvPortMalloc                                      C:\Users\minec\AppData\Local\arduino\sketches\CBAA8D2BDA3D583126B4F168E555FB8A/..\..\cores\69cc2d20a9c0859fc6838a3a84e0426a\core.a(heap_4.c.o)
                                                  C:\Users\minec\AppData\Local\arduino\sketches\CBAA8D2BDA3D583126B4F168E555FB8A/..\..\cores\69cc2d20a9c0859fc6838a3a84e0426a\core.a(malloc.c.o)
                                                  C:\Users\minec\AppData\Local\arduino\sketches\CBAA8D2BDA3D583126B4F168E555FB8A/..\..\cores\69cc2d20a9c0859fc6838a3a84e0426a\core.a(new.cpp.o)
                                                  C:\Users\minec\AppData\Local\arduino\sketches\CBAA8D2BDA3D583126B4F168E555FB8A/..\..\cores\69cc2d20a9c0859fc6838a3a84e0426a\core.a(queue.c.o)
                                                  C:\Users\minec\AppData\Local\arduino\sketches\CBAA8D2BDA3D583126B4F168E555FB8A/..\..\cores\69cc2d20a9c0859fc6838a3a84e0426a\core.a(timers.c.o)
                                                  C:\Users\minec\AppData\Local\arduino\sketches\CBAA8D2BDA3D583126B4F168E555FB8A/..\..\cores\69cc2d20a9c0859fc6838a3a84e0426a\core.a(tasks.c.o)
pvPortRealloc                                     C:\Users\minec\AppData\Local\arduino\sketches\CBAA8D2BDA3D583126B4F168E555FB8A/..\..\cores\69cc2d20a9c0859fc6838a3a84e0426a\core.a(heap_4.c.o)
                                                  C:\Users\minec\AppData\Local\arduino\sketches\CBAA8D2BDA3D583126B4F168E555FB8A/..\..\cores\69cc2d20a9c0859fc6838a3a84e0426a\core.a(malloc.c.o)
pvTaskGetThreadLocalStoragePointer                C:\Users\minec\AppData\Local\arduino\sketches\CBAA8D2BDA3D583126B4F168E555FB8A/..\..\cores\69cc2d20a9c0859fc6838a3a84e0426a\core.a(tasks.c.o)
                                                  C:\Users\minec\AppData\Local\arduino\sketches\CBAA8D2BDA3D583126B4F168E555FB8A/..\..\cores\69cc2d20a9c0859fc6838a3a84e0426a\core.a(putchar.cpp.o)
pvTaskIncrementMutexHeldCount                     C:\Users\minec\AppData\Local\arduino\sketches\CBAA8D2BDA3D583126B4F168E555FB8A/..\..\cores\69cc2d20a9c0859fc6838a3a84e0426a\core.a(tasks.c.o)
                                                  C:\Users\minec\AppData\Local\arduino\sketches\CBAA8D2BDA3D583126B4F168E555FB8A/..\..\cores\69cc2d20a9c0859fc6838a3a84e0426a\core.a(queue.c.o)
pvTimerGetTimerID                                 C:\Users\minec\AppData\Local\arduino\sketches\CBAA8D2BDA3D583126B4F168E555FB8A/..\..\cores\69cc2d20a9c0859fc6838a3a84e0426a\core.a(timers.c.o)
pvalloc                                           C:\Users\minec\AppData\Local\arduino\sketches\CBAA8D2BDA3D583126B4F168E555FB8A/..\..\cores\69cc2d20a9c0859fc6838a3a84e0426a\core.a(malloc.c.o)
pxCurrentTCB                                      C:\Users\minec\AppData\Local\arduino\sketches\CBAA8D2BDA3D583126B4F168E555FB8A/..\..\cores\69cc2d20a9c0859fc6838a3a84e0426a\core.a(tasks.c.o)
                                                  C:\Users\minec\AppData\Local\arduino\sketches\CBAA8D2BDA3D583126B4F168E555FB8A/..\..\cores\69cc2d20a9c0859fc6838a3a84e0426a\core.a(port.c.o)
pxPortInitialiseStack                             C:\Users\minec\AppData\Local\arduino\sketches\CBAA8D2BDA3D583126B4F168E555FB8A/..\..\cores\69cc2d20a9c0859fc6838a3a84e0426a\core.a(port_nrf52.c.o)
                                                  C:\Users\minec\AppData\Local\arduino\sketches\CBAA8D2BDA3D583126B4F168E555FB8A/..\..\cores\69cc2d20a9c0859fc6838a3a84e0426a\core.a(tasks.c.o)
raise                                             c:/users/minec/appdata/local/arduino15/packages/n-able-arduino/tools/gcc-arm-none-eabi/10.3.1-2.1/bin/../lib/gcc/arm-none-eabi/10.3.1/../../../../arm-none-eabi/lib/thumb/v7e-m/nofp\libc_nano.a(lib_a-signal.o)
                                                  c:/users/minec/appdata/local/arduino15/packages/n-able-arduino/tools/gcc-arm-none-eabi/10.3.1-2.1/bin/../lib/gcc/arm-none-eabi/10.3.1/../../../../arm-none-eabi/lib/thumb/v7e-m/nofp\libc_nano.a(lib_a-abort.o)
realloc                                           C:\Users\minec\AppData\Local\arduino\sketches\CBAA8D2BDA3D583126B4F168E555FB8A/..\..\cores\69cc2d20a9c0859fc6838a3a84e0426a\core.a(malloc.c.o)
restore_core_regs                                 c:/users/minec/appdata/local/arduino15/packages/n-able-arduino/tools/gcc-arm-none-eabi/10.3.1-2.1/bin/../lib/gcc/arm-none-eabi/10.3.1/thumb/v7e-m/nofp\libgcc.a(libunwind.o)
                                                  c:/users/minec/appdata/local/arduino15/packages/n-able-arduino/tools/gcc-arm-none-eabi/10.3.1-2.1/bin/../lib/gcc/arm-none-eabi/10.3.1/thumb/v7e-m/nofp\libgcc.a(unwind-arm.o)
serialEvent()                                     C:\Users\minec\AppData\Local\arduino\sketches\CBAA8D2BDA3D583126B4F168E555FB8A/..\..\cores\69cc2d20a9c0859fc6838a3a84e0426a\core.a(Uart.cpp.o)
serialEventRun()                                  C:\Users\minec\AppData\Local\arduino\sketches\CBAA8D2BDA3D583126B4F168E555FB8A/..\..\cores\69cc2d20a9c0859fc6838a3a84e0426a\core.a(Uart.cpp.o)
                                                  C:\Users\minec\AppData\Local\arduino\sketches\CBAA8D2BDA3D583126B4F168E555FB8A/..\..\cores\69cc2d20a9c0859fc6838a3a84e0426a\core.a(main.cpp.o)
setup                                             C:\Users\minec\AppData\Local\arduino\sketches\CBAA8D2BDA3D583126B4F168E555FB8A\sketch\BlinkLEDs.ino.cpp.o
                                                  C:\Users\minec\AppData\Local\arduino\sketches\CBAA8D2BDA3D583126B4F168E555FB8A/..\..\cores\69cc2d20a9c0859fc6838a3a84e0426a\core.a(main.cpp.o)
signal                                            c:/users/minec/appdata/local/arduino15/packages/n-able-arduino/tools/gcc-arm-none-eabi/10.3.1-2.1/bin/../lib/gcc/arm-none-eabi/10.3.1/../../../../arm-none-eabi/lib/thumb/v7e-m/nofp\libc_nano.a(lib_a-signal.o)
sniprintf                                         C:\Users\minec\AppData\Local\arduino\sketches\CBAA8D2BDA3D583126B4F168E555FB8A/..\..\cores\69cc2d20a9c0859fc6838a3a84e0426a\core.a(printf.c.o)
snprintf                                          C:\Users\minec\AppData\Local\arduino\sketches\CBAA8D2BDA3D583126B4F168E555FB8A/..\..\cores\69cc2d20a9c0859fc6838a3a84e0426a\core.a(printf.c.o)
                                                  C:\Users\minec\AppData\Local\arduino\sketches\CBAA8D2BDA3D583126B4F168E555FB8A/..\..\cores\69cc2d20a9c0859fc6838a3a84e0426a\core.a(debug_utils.cpp.o)
software_init_hook                                c:/users/minec/appdata/local/arduino15/packages/n-able-arduino/tools/gcc-arm-none-eabi/10.3.1-2.1/bin/../lib/gcc/arm-none-eabi/10.3.1/../../../../arm-none-eabi/lib/thumb/v7e-m/nofp/crt0.o
sprintf                                           C:\Users\minec\AppData\Local\arduino\sketches\CBAA8D2BDA3D583126B4F168E555FB8A/..\..\cores\69cc2d20a9c0859fc6838a3a84e0426a\core.a(printf.c.o)
strlen                                            c:/users/minec/appdata/local/arduino15/packages/n-able-arduino/tools/gcc-arm-none-eabi/10.3.1-2.1/bin/../lib/gcc/arm-none-eabi/10.3.1/../../../../arm-none-eabi/lib/thumb/v7e-m/nofp\libc_nano.a(lib_a-strlen.o)
                                                  C:\Users\minec\AppData\Local\arduino\sketches\CBAA8D2BDA3D583126B4F168E555FB8A/..\..\cores\69cc2d20a9c0859fc6838a3a84e0426a\core.a(Print.cpp.o)
systemPowerOff                                    C:\Users\minec\AppData\Local\arduino\sketches\CBAA8D2BDA3D583126B4F168E555FB8A/..\..\cores\69cc2d20a9c0859fc6838a3a84e0426a\core.a(wiring.c.o)
systemRestart                                     C:\Users\minec\AppData\Local\arduino\sketches\CBAA8D2BDA3D583126B4F168E555FB8A/..\..\cores\69cc2d20a9c0859fc6838a3a84e0426a\core.a(wiring.c.o)
ulGetCurrentStackHighAddress                      C:\Users\minec\AppData\Local\arduino\sketches\CBAA8D2BDA3D583126B4F168E555FB8A/..\..\cores\69cc2d20a9c0859fc6838a3a84e0426a\core.a(tasks.c.o)
                                                  C:\Users\minec\AppData\Local\arduino\sketches\CBAA8D2BDA3D583126B4F168E555FB8A/..\..\cores\69cc2d20a9c0859fc6838a3a84e0426a\core.a(debug_utils.cpp.o)
ulGetCurrentStackLowAddress                       C:\Users\minec\AppData\Local\arduino\sketches\CBAA8D2BDA3D583126B4F168E555FB8A/..\..\cores\69cc2d20a9c0859fc6838a3a84e0426a\core.a(tasks.c.o)
                                                  C:\Users\minec\AppData\Local\arduino\sketches\CBAA8D2BDA3D583126B4F168E555FB8A/..\..\cores\69cc2d20a9c0859fc6838a3a84e0426a\core.a(debug_utils.cpp.o)
ulSetInterruptMaskFromISR                         C:\Users\minec\AppData\Local\arduino\sketches\CBAA8D2BDA3D583126B4F168E555FB8A/..\..\cores\69cc2d20a9c0859fc6838a3a84e0426a\core.a(port_nrf52.c.o)
                                                  C:\Users\minec\AppData\Local\arduino\sketches\CBAA8D2BDA3D583126B4F168E555FB8A/..\..\cores\69cc2d20a9c0859fc6838a3a84e0426a\core.a(queue.c.o)
                                                  C:\Users\minec\AppData\Local\arduino\sketches\CBAA8D2BDA3D583126B4F168E555FB8A/..\..\cores\69cc2d20a9c0859fc6838a3a84e0426a\core.a(port_nrf52_systick.c.o)
                                                  C:\Users\minec\AppData\Local\arduino\sketches\CBAA8D2BDA3D583126B4F168E555FB8A/..\..\cores\69cc2d20a9c0859fc6838a3a84e0426a\core.a(tasks.c.o)
ulTaskGenericNotifyTake                           C:\Users\minec\AppData\Local\arduino\sketches\CBAA8D2BDA3D583126B4F168E555FB8A/..\..\cores\69cc2d20a9c0859fc6838a3a84e0426a\core.a(tasks.c.o)
ulTaskGenericNotifyValueClear                     C:\Users\minec\AppData\Local\arduino\sketches\CBAA8D2BDA3D583126B4F168E555FB8A/..\..\cores\69cc2d20a9c0859fc6838a3a84e0426a\core.a(tasks.c.o)
unapply_scaling                                   C:\Users\minec\AppData\Local\arduino\sketches\CBAA8D2BDA3D583126B4F168E555FB8A/..\..\cores\69cc2d20a9c0859fc6838a3a84e0426a\core.a(printf.c.o)
update_normalization                              C:\Users\minec\AppData\Local\arduino\sketches\CBAA8D2BDA3D583126B4F168E555FB8A/..\..\cores\69cc2d20a9c0859fc6838a3a84e0426a\core.a(printf.c.o)
uxGetCriticalNestingDepth                         C:\Users\minec\AppData\Local\arduino\sketches\CBAA8D2BDA3D583126B4F168E555FB8A/..\..\cores\69cc2d20a9c0859fc6838a3a84e0426a\core.a(port_nrf52.c.o)
uxListRemove                                      C:\Users\minec\AppData\Local\arduino\sketches\CBAA8D2BDA3D583126B4F168E555FB8A/..\..\cores\69cc2d20a9c0859fc6838a3a84e0426a\core.a(list.c.o)
                                                  C:\Users\minec\AppData\Local\arduino\sketches\CBAA8D2BDA3D583126B4F168E555FB8A/..\..\cores\69cc2d20a9c0859fc6838a3a84e0426a\core.a(timers.c.o)
                                                  C:\Users\minec\AppData\Local\arduino\sketches\CBAA8D2BDA3D583126B4F168E555FB8A/..\..\cores\69cc2d20a9c0859fc6838a3a84e0426a\core.a(tasks.c.o)
uxQueueMessagesWaiting                            C:\Users\minec\AppData\Local\arduino\sketches\CBAA8D2BDA3D583126B4F168E555FB8A/..\..\cores\69cc2d20a9c0859fc6838a3a84e0426a\core.a(queue.c.o)
uxQueueMessagesWaitingFromISR                     C:\Users\minec\AppData\Local\arduino\sketches\CBAA8D2BDA3D583126B4F168E555FB8A/..\..\cores\69cc2d20a9c0859fc6838a3a84e0426a\core.a(queue.c.o)
uxQueueSpacesAvailable                            C:\Users\minec\AppData\Local\arduino\sketches\CBAA8D2BDA3D583126B4F168E555FB8A/..\..\cores\69cc2d20a9c0859fc6838a3a84e0426a\core.a(queue.c.o)
uxTaskGetNumberOfTasks                            C:\Users\minec\AppData\Local\arduino\sketches\CBAA8D2BDA3D583126B4F168E555FB8A/..\..\cores\69cc2d20a9c0859fc6838a3a84e0426a\core.a(tasks.c.o)
uxTaskGetStackHighWaterMark                       C:\Users\minec\AppData\Local\arduino\sketches\CBAA8D2BDA3D583126B4F168E555FB8A/..\..\cores\69cc2d20a9c0859fc6838a3a84e0426a\core.a(tasks.c.o)
                                                  C:\Users\minec\AppData\Local\arduino\sketches\CBAA8D2BDA3D583126B4F168E555FB8A/..\..\cores\69cc2d20a9c0859fc6838a3a84e0426a\core.a(rtos.cpp.o)
uxTaskPriorityGet                                 C:\Users\minec\AppData\Local\arduino\sketches\CBAA8D2BDA3D583126B4F168E555FB8A/..\..\cores\69cc2d20a9c0859fc6838a3a84e0426a\core.a(tasks.c.o)
uxTaskPriorityGetFromISR                          C:\Users\minec\AppData\Local\arduino\sketches\CBAA8D2BDA3D583126B4F168E555FB8A/..\..\cores\69cc2d20a9c0859fc6838a3a84e0426a\core.a(tasks.c.o)
uxTaskResetEventItemValue                         C:\Users\minec\AppData\Local\arduino\sketches\CBAA8D2BDA3D583126B4F168E555FB8A/..\..\cores\69cc2d20a9c0859fc6838a3a84e0426a\core.a(tasks.c.o)
uxTimerGetReloadMode                              C:\Users\minec\AppData\Local\arduino\sketches\CBAA8D2BDA3D583126B4F168E555FB8A/..\..\cores\69cc2d20a9c0859fc6838a3a84e0426a\core.a(timers.c.o)
uxTopUsedPriority                                 C:\Users\minec\AppData\Local\arduino\sketches\CBAA8D2BDA3D583126B4F168E555FB8A/..\..\cores\69cc2d20a9c0859fc6838a3a84e0426a\core.a(tasks.c.o)
vApplicationGetIdleTaskMemory                     C:\Users\minec\AppData\Local\arduino\sketches\CBAA8D2BDA3D583126B4F168E555FB8A/..\..\cores\69cc2d20a9c0859fc6838a3a84e0426a\core.a(static_tasks.c.o)
                                                  C:\Users\minec\AppData\Local\arduino\sketches\CBAA8D2BDA3D583126B4F168E555FB8A/..\..\cores\69cc2d20a9c0859fc6838a3a84e0426a\core.a(tasks.c.o)
vApplicationGetTimerTaskMemory                    C:\Users\minec\AppData\Local\arduino\sketches\CBAA8D2BDA3D583126B4F168E555FB8A/..\..\cores\69cc2d20a9c0859fc6838a3a84e0426a\core.a(static_tasks.c.o)
                                                  C:\Users\minec\AppData\Local\arduino\sketches\CBAA8D2BDA3D583126B4F168E555FB8A/..\..\cores\69cc2d20a9c0859fc6838a3a84e0426a\core.a(timers.c.o)
vApplicationIdleHook                              C:\Users\minec\AppData\Local\arduino\sketches\CBAA8D2BDA3D583126B4F168E555FB8A/..\..\cores\69cc2d20a9c0859fc6838a3a84e0426a\core.a(rtos.cpp.o)
                                                  C:\Users\minec\AppData\Local\arduino\sketches\CBAA8D2BDA3D583126B4F168E555FB8A/..\..\cores\69cc2d20a9c0859fc6838a3a84e0426a\core.a(tasks.c.o)
vApplicationMallocFailedHook                      C:\Users\minec\AppData\Local\arduino\sketches\CBAA8D2BDA3D583126B4F168E555FB8A/..\..\cores\69cc2d20a9c0859fc6838a3a84e0426a\core.a(rtos.cpp.o)
                                                  C:\Users\minec\AppData\Local\arduino\sketches\CBAA8D2BDA3D583126B4F168E555FB8A/..\..\cores\69cc2d20a9c0859fc6838a3a84e0426a\core.a(heap_4.c.o)
vApplicationStackOverflowHook                     C:\Users\minec\AppData\Local\arduino\sketches\CBAA8D2BDA3D583126B4F168E555FB8A/..\..\cores\69cc2d20a9c0859fc6838a3a84e0426a\core.a(rtos.cpp.o)
                                                  C:\Users\minec\AppData\Local\arduino\sketches\CBAA8D2BDA3D583126B4F168E555FB8A/..\..\cores\69cc2d20a9c0859fc6838a3a84e0426a\core.a(tasks.c.o)
vClearInterruptMaskFromISR                        C:\Users\minec\AppData\Local\arduino\sketches\CBAA8D2BDA3D583126B4F168E555FB8A/..\..\cores\69cc2d20a9c0859fc6838a3a84e0426a\core.a(port_nrf52.c.o)
                                                  C:\Users\minec\AppData\Local\arduino\sketches\CBAA8D2BDA3D583126B4F168E555FB8A/..\..\cores\69cc2d20a9c0859fc6838a3a84e0426a\core.a(queue.c.o)
                                                  C:\Users\minec\AppData\Local\arduino\sketches\CBAA8D2BDA3D583126B4F168E555FB8A/..\..\cores\69cc2d20a9c0859fc6838a3a84e0426a\core.a(port_nrf52_systick.c.o)
                                                  C:\Users\minec\AppData\Local\arduino\sketches\CBAA8D2BDA3D583126B4F168E555FB8A/..\..\cores\69cc2d20a9c0859fc6838a3a84e0426a\core.a(tasks.c.o)
vListInitialise                                   C:\Users\minec\AppData\Local\arduino\sketches\CBAA8D2BDA3D583126B4F168E555FB8A/..\..\cores\69cc2d20a9c0859fc6838a3a84e0426a\core.a(list.c.o)
                                                  C:\Users\minec\AppData\Local\arduino\sketches\CBAA8D2BDA3D583126B4F168E555FB8A/..\..\cores\69cc2d20a9c0859fc6838a3a84e0426a\core.a(queue.c.o)
                                                  C:\Users\minec\AppData\Local\arduino\sketches\CBAA8D2BDA3D583126B4F168E555FB8A/..\..\cores\69cc2d20a9c0859fc6838a3a84e0426a\core.a(timers.c.o)
                                                  C:\Users\minec\AppData\Local\arduino\sketches\CBAA8D2BDA3D583126B4F168E555FB8A/..\..\cores\69cc2d20a9c0859fc6838a3a84e0426a\core.a(tasks.c.o)
vListInitialiseItem                               C:\Users\minec\AppData\Local\arduino\sketches\CBAA8D2BDA3D583126B4F168E555FB8A/..\..\cores\69cc2d20a9c0859fc6838a3a84e0426a\core.a(list.c.o)
                                                  C:\Users\minec\AppData\Local\arduino\sketches\CBAA8D2BDA3D583126B4F168E555FB8A/..\..\cores\69cc2d20a9c0859fc6838a3a84e0426a\core.a(timers.c.o)
                                                  C:\Users\minec\AppData\Local\arduino\sketches\CBAA8D2BDA3D583126B4F168E555FB8A/..\..\cores\69cc2d20a9c0859fc6838a3a84e0426a\core.a(tasks.c.o)
vListInsert                                       C:\Users\minec\AppData\Local\arduino\sketches\CBAA8D2BDA3D583126B4F168E555FB8A/..\..\cores\69cc2d20a9c0859fc6838a3a84e0426a\core.a(list.c.o)
                                                  C:\Users\minec\AppData\Local\arduino\sketches\CBAA8D2BDA3D583126B4F168E555FB8A/..\..\cores\69cc2d20a9c0859fc6838a3a84e0426a\core.a(timers.c.o)
                                                  C:\Users\minec\AppData\Local\arduino\sketches\CBAA8D2BDA3D583126B4F168E555FB8A/..\..\cores\69cc2d20a9c0859fc6838a3a84e0426a\core.a(tasks.c.o)
vListInsertEnd                                    C:\Users\minec\AppData\Local\arduino\sketches\CBAA8D2BDA3D583126B4F168E555FB8A/..\..\cores\69cc2d20a9c0859fc6838a3a84e0426a\core.a(list.c.o)
                                                  C:\Users\minec\AppData\Local\arduino\sketches\CBAA8D2BDA3D583126B4F168E555FB8A/..\..\cores\69cc2d20a9c0859fc6838a3a84e0426a\core.a(tasks.c.o)
vPortEndScheduler                                 C:\Users\minec\AppData\Local\arduino\sketches\CBAA8D2BDA3D583126B4F168E555FB8A/..\..\cores\69cc2d20a9c0859fc6838a3a84e0426a\core.a(port_nrf52.c.o)
                                                  C:\Users\minec\AppData\Local\arduino\sketches\CBAA8D2BDA3D583126B4F168E555FB8A/..\..\cores\69cc2d20a9c0859fc6838a3a84e0426a\core.a(tasks.c.o)
vPortEnterCritical                                C:\Users\minec\AppData\Local\arduino\sketches\CBAA8D2BDA3D583126B4F168E555FB8A/..\..\cores\69cc2d20a9c0859fc6838a3a84e0426a\core.a(port_nrf52.c.o)
                                                  C:\Users\minec\AppData\Local\arduino\sketches\CBAA8D2BDA3D583126B4F168E555FB8A/..\..\cores\69cc2d20a9c0859fc6838a3a84e0426a\core.a(queue.c.o)
                                                  C:\Users\minec\AppData\Local\arduino\sketches\CBAA8D2BDA3D583126B4F168E555FB8A/..\..\cores\69cc2d20a9c0859fc6838a3a84e0426a\core.a(heap_4.c.o)
                                                  C:\Users\minec\AppData\Local\arduino\sketches\CBAA8D2BDA3D583126B4F168E555FB8A/..\..\cores\69cc2d20a9c0859fc6838a3a84e0426a\core.a(wiring.c.o)
                                                  C:\Users\minec\AppData\Local\arduino\sketches\CBAA8D2BDA3D583126B4F168E555FB8A/..\..\cores\69cc2d20a9c0859fc6838a3a84e0426a\core.a(timers.c.o)
                                                  C:\Users\minec\AppData\Local\arduino\sketches\CBAA8D2BDA3D583126B4F168E555FB8A/..\..\cores\69cc2d20a9c0859fc6838a3a84e0426a\core.a(tasks.c.o)
vPortExitCritical                                 C:\Users\minec\AppData\Local\arduino\sketches\CBAA8D2BDA3D583126B4F168E555FB8A/..\..\cores\69cc2d20a9c0859fc6838a3a84e0426a\core.a(port_nrf52.c.o)
                                                  C:\Users\minec\AppData\Local\arduino\sketches\CBAA8D2BDA3D583126B4F168E555FB8A/..\..\cores\69cc2d20a9c0859fc6838a3a84e0426a\core.a(queue.c.o)
                                                  C:\Users\minec\AppData\Local\arduino\sketches\CBAA8D2BDA3D583126B4F168E555FB8A/..\..\cores\69cc2d20a9c0859fc6838a3a84e0426a\core.a(heap_4.c.o)
                                                  C:\Users\minec\AppData\Local\arduino\sketches\CBAA8D2BDA3D583126B4F168E555FB8A/..\..\cores\69cc2d20a9c0859fc6838a3a84e0426a\core.a(wiring.c.o)
                                                  C:\Users\minec\AppData\Local\arduino\sketches\CBAA8D2BDA3D583126B4F168E555FB8A/..\..\cores\69cc2d20a9c0859fc6838a3a84e0426a\core.a(timers.c.o)
                                                  C:\Users\minec\AppData\Local\arduino\sketches\CBAA8D2BDA3D583126B4F168E555FB8A/..\..\cores\69cc2d20a9c0859fc6838a3a84e0426a\core.a(tasks.c.o)
vPortFree                                         C:\Users\minec\AppData\Local\arduino\sketches\CBAA8D2BDA3D583126B4F168E555FB8A/..\..\cores\69cc2d20a9c0859fc6838a3a84e0426a\core.a(heap_4.c.o)
                                                  C:\Users\minec\AppData\Local\arduino\sketches\CBAA8D2BDA3D583126B4F168E555FB8A/..\..\cores\69cc2d20a9c0859fc6838a3a84e0426a\core.a(malloc.c.o)
                                                  C:\Users\minec\AppData\Local\arduino\sketches\CBAA8D2BDA3D583126B4F168E555FB8A/..\..\cores\69cc2d20a9c0859fc6838a3a84e0426a\core.a(new.cpp.o)
                                                  C:\Users\minec\AppData\Local\arduino\sketches\CBAA8D2BDA3D583126B4F168E555FB8A/..\..\cores\69cc2d20a9c0859fc6838a3a84e0426a\core.a(queue.c.o)
                                                  C:\Users\minec\AppData\Local\arduino\sketches\CBAA8D2BDA3D583126B4F168E555FB8A/..\..\cores\69cc2d20a9c0859fc6838a3a84e0426a\core.a(timers.c.o)
                                                  C:\Users\minec\AppData\Local\arduino\sketches\CBAA8D2BDA3D583126B4F168E555FB8A/..\..\cores\69cc2d20a9c0859fc6838a3a84e0426a\core.a(tasks.c.o)
vPortGetHeapStats                                 C:\Users\minec\AppData\Local\arduino\sketches\CBAA8D2BDA3D583126B4F168E555FB8A/..\..\cores\69cc2d20a9c0859fc6838a3a84e0426a\core.a(heap_4.c.o)
vPortInitialiseBlocks                             C:\Users\minec\AppData\Local\arduino\sketches\CBAA8D2BDA3D583126B4F168E555FB8A/..\..\cores\69cc2d20a9c0859fc6838a3a84e0426a\core.a(heap_4.c.o)
vPortSetupTimerInterrupt                          C:\Users\minec\AppData\Local\arduino\sketches\CBAA8D2BDA3D583126B4F168E555FB8A/..\..\cores\69cc2d20a9c0859fc6838a3a84e0426a\core.a(port_nrf52_systick.c.o)
                                                  C:\Users\minec\AppData\Local\arduino\sketches\CBAA8D2BDA3D583126B4F168E555FB8A/..\..\cores\69cc2d20a9c0859fc6838a3a84e0426a\core.a(port_nrf52.c.o)
vPortStartFirstTask                               C:\Users\minec\AppData\Local\arduino\sketches\CBAA8D2BDA3D583126B4F168E555FB8A/..\..\cores\69cc2d20a9c0859fc6838a3a84e0426a\core.a(port.c.o)
                                                  C:\Users\minec\AppData\Local\arduino\sketches\CBAA8D2BDA3D583126B4F168E555FB8A/..\..\cores\69cc2d20a9c0859fc6838a3a84e0426a\core.a(port_nrf52.c.o)
vPortSuppressTicksAndSleep                        C:\Users\minec\AppData\Local\arduino\sketches\CBAA8D2BDA3D583126B4F168E555FB8A/..\..\cores\69cc2d20a9c0859fc6838a3a84e0426a\core.a(port_nrf52_systick.c.o)
                                                  C:\Users\minec\AppData\Local\arduino\sketches\CBAA8D2BDA3D583126B4F168E555FB8A/..\..\cores\69cc2d20a9c0859fc6838a3a84e0426a\core.a(tasks.c.o)
vQueueDelete                                      C:\Users\minec\AppData\Local\arduino\sketches\CBAA8D2BDA3D583126B4F168E555FB8A/..\..\cores\69cc2d20a9c0859fc6838a3a84e0426a\core.a(queue.c.o)
vQueueWaitForMessageRestricted                    C:\Users\minec\AppData\Local\arduino\sketches\CBAA8D2BDA3D583126B4F168E555FB8A/..\..\cores\69cc2d20a9c0859fc6838a3a84e0426a\core.a(queue.c.o)
                                                  C:\Users\minec\AppData\Local\arduino\sketches\CBAA8D2BDA3D583126B4F168E555FB8A/..\..\cores\69cc2d20a9c0859fc6838a3a84e0426a\core.a(timers.c.o)
vTaskDelay                                        C:\Users\minec\AppData\Local\arduino\sketches\CBAA8D2BDA3D583126B4F168E555FB8A/..\..\cores\69cc2d20a9c0859fc6838a3a84e0426a\core.a(tasks.c.o)
                                                  C:\Users\minec\AppData\Local\arduino\sketches\CBAA8D2BDA3D583126B4F168E555FB8A/..\..\cores\69cc2d20a9c0859fc6838a3a84e0426a\core.a(delay.c.o)
vTaskDelete                                       C:\Users\minec\AppData\Local\arduino\sketches\CBAA8D2BDA3D583126B4F168E555FB8A/..\..\cores\69cc2d20a9c0859fc6838a3a84e0426a\core.a(tasks.c.o)
vTaskEndScheduler                                 C:\Users\minec\AppData\Local\arduino\sketches\CBAA8D2BDA3D583126B4F168E555FB8A/..\..\cores\69cc2d20a9c0859fc6838a3a84e0426a\core.a(tasks.c.o)
vTaskGenericNotifyGiveFromISR                     C:\Users\minec\AppData\Local\arduino\sketches\CBAA8D2BDA3D583126B4F168E555FB8A/..\..\cores\69cc2d20a9c0859fc6838a3a84e0426a\core.a(tasks.c.o)
vTaskInternalSetTimeOutState                      C:\Users\minec\AppData\Local\arduino\sketches\CBAA8D2BDA3D583126B4F168E555FB8A/..\..\cores\69cc2d20a9c0859fc6838a3a84e0426a\core.a(tasks.c.o)
                                                  C:\Users\minec\AppData\Local\arduino\sketches\CBAA8D2BDA3D583126B4F168E555FB8A/..\..\cores\69cc2d20a9c0859fc6838a3a84e0426a\core.a(queue.c.o)
vTaskMissedYield                                  C:\Users\minec\AppData\Local\arduino\sketches\CBAA8D2BDA3D583126B4F168E555FB8A/..\..\cores\69cc2d20a9c0859fc6838a3a84e0426a\core.a(tasks.c.o)
                                                  C:\Users\minec\AppData\Local\arduino\sketches\CBAA8D2BDA3D583126B4F168E555FB8A/..\..\cores\69cc2d20a9c0859fc6838a3a84e0426a\core.a(queue.c.o)
vTaskPlaceOnEventList                             C:\Users\minec\AppData\Local\arduino\sketches\CBAA8D2BDA3D583126B4F168E555FB8A/..\..\cores\69cc2d20a9c0859fc6838a3a84e0426a\core.a(tasks.c.o)
                                                  C:\Users\minec\AppData\Local\arduino\sketches\CBAA8D2BDA3D583126B4F168E555FB8A/..\..\cores\69cc2d20a9c0859fc6838a3a84e0426a\core.a(queue.c.o)
vTaskPlaceOnEventListRestricted                   C:\Users\minec\AppData\Local\arduino\sketches\CBAA8D2BDA3D583126B4F168E555FB8A/..\..\cores\69cc2d20a9c0859fc6838a3a84e0426a\core.a(tasks.c.o)
                                                  C:\Users\minec\AppData\Local\arduino\sketches\CBAA8D2BDA3D583126B4F168E555FB8A/..\..\cores\69cc2d20a9c0859fc6838a3a84e0426a\core.a(queue.c.o)
vTaskPlaceOnUnorderedEventList                    C:\Users\minec\AppData\Local\arduino\sketches\CBAA8D2BDA3D583126B4F168E555FB8A/..\..\cores\69cc2d20a9c0859fc6838a3a84e0426a\core.a(tasks.c.o)
vTaskPriorityDisinheritAfterTimeout               C:\Users\minec\AppData\Local\arduino\sketches\CBAA8D2BDA3D583126B4F168E555FB8A/..\..\cores\69cc2d20a9c0859fc6838a3a84e0426a\core.a(tasks.c.o)
                                                  C:\Users\minec\AppData\Local\arduino\sketches\CBAA8D2BDA3D583126B4F168E555FB8A/..\..\cores\69cc2d20a9c0859fc6838a3a84e0426a\core.a(queue.c.o)
vTaskPrioritySet                                  C:\Users\minec\AppData\Local\arduino\sketches\CBAA8D2BDA3D583126B4F168E555FB8A/..\..\cores\69cc2d20a9c0859fc6838a3a84e0426a\core.a(tasks.c.o)
vTaskRemoveFromUnorderedEventList                 C:\Users\minec\AppData\Local\arduino\sketches\CBAA8D2BDA3D583126B4F168E555FB8A/..\..\cores\69cc2d20a9c0859fc6838a3a84e0426a\core.a(tasks.c.o)
vTaskResume                                       C:\Users\minec\AppData\Local\arduino\sketches\CBAA8D2BDA3D583126B4F168E555FB8A/..\..\cores\69cc2d20a9c0859fc6838a3a84e0426a\core.a(tasks.c.o)
vTaskSetThreadLocalStoragePointer                 C:\Users\minec\AppData\Local\arduino\sketches\CBAA8D2BDA3D583126B4F168E555FB8A/..\..\cores\69cc2d20a9c0859fc6838a3a84e0426a\core.a(tasks.c.o)
                                                  C:\Users\minec\AppData\Local\arduino\sketches\CBAA8D2BDA3D583126B4F168E555FB8A/..\..\cores\69cc2d20a9c0859fc6838a3a84e0426a\core.a(putchar.cpp.o)
vTaskSetTimeOutState                              C:\Users\minec\AppData\Local\arduino\sketches\CBAA8D2BDA3D583126B4F168E555FB8A/..\..\cores\69cc2d20a9c0859fc6838a3a84e0426a\core.a(tasks.c.o)
vTaskStartScheduler                               C:\Users\minec\AppData\Local\arduino\sketches\CBAA8D2BDA3D583126B4F168E555FB8A/..\..\cores\69cc2d20a9c0859fc6838a3a84e0426a\core.a(tasks.c.o)
                                                  C:\Users\minec\AppData\Local\arduino\sketches\CBAA8D2BDA3D583126B4F168E555FB8A/..\..\cores\69cc2d20a9c0859fc6838a3a84e0426a\core.a(main.cpp.o)
vTaskStepTick                                     C:\Users\minec\AppData\Local\arduino\sketches\CBAA8D2BDA3D583126B4F168E555FB8A/..\..\cores\69cc2d20a9c0859fc6838a3a84e0426a\core.a(tasks.c.o)
                                                  C:\Users\minec\AppData\Local\arduino\sketches\CBAA8D2BDA3D583126B4F168E555FB8A/..\..\cores\69cc2d20a9c0859fc6838a3a84e0426a\core.a(port_nrf52_systick.c.o)
vTaskSuspend                                      C:\Users\minec\AppData\Local\arduino\sketches\CBAA8D2BDA3D583126B4F168E555FB8A/..\..\cores\69cc2d20a9c0859fc6838a3a84e0426a\core.a(tasks.c.o)
vTaskSuspendAll                                   C:\Users\minec\AppData\Local\arduino\sketches\CBAA8D2BDA3D583126B4F168E555FB8A/..\..\cores\69cc2d20a9c0859fc6838a3a84e0426a\core.a(tasks.c.o)
                                                  C:\Users\minec\AppData\Local\arduino\sketches\CBAA8D2BDA3D583126B4F168E555FB8A/..\..\cores\69cc2d20a9c0859fc6838a3a84e0426a\core.a(queue.c.o)
                                                  C:\Users\minec\AppData\Local\arduino\sketches\CBAA8D2BDA3D583126B4F168E555FB8A/..\..\cores\69cc2d20a9c0859fc6838a3a84e0426a\core.a(heap_4.c.o)
                                                  C:\Users\minec\AppData\Local\arduino\sketches\CBAA8D2BDA3D583126B4F168E555FB8A/..\..\cores\69cc2d20a9c0859fc6838a3a84e0426a\core.a(timers.c.o)
vTaskSwitchContext                                C:\Users\minec\AppData\Local\arduino\sketches\CBAA8D2BDA3D583126B4F168E555FB8A/..\..\cores\69cc2d20a9c0859fc6838a3a84e0426a\core.a(tasks.c.o)
                                                  C:\Users\minec\AppData\Local\arduino\sketches\CBAA8D2BDA3D583126B4F168E555FB8A/..\..\cores\69cc2d20a9c0859fc6838a3a84e0426a\core.a(port.c.o)
vTimerSetReloadMode                               C:\Users\minec\AppData\Local\arduino\sketches\CBAA8D2BDA3D583126B4F168E555FB8A/..\..\cores\69cc2d20a9c0859fc6838a3a84e0426a\core.a(timers.c.o)
vTimerSetTimerID                                  C:\Users\minec\AppData\Local\arduino\sketches\CBAA8D2BDA3D583126B4F168E555FB8A/..\..\cores\69cc2d20a9c0859fc6838a3a84e0426a\core.a(timers.c.o)
valloc                                            C:\Users\minec\AppData\Local\arduino\sketches\CBAA8D2BDA3D583126B4F168E555FB8A/..\..\cores\69cc2d20a9c0859fc6838a3a84e0426a\core.a(malloc.c.o)
vfctprintf                                        C:\Users\minec\AppData\Local\arduino\sketches\CBAA8D2BDA3D583126B4F168E555FB8A/..\..\cores\69cc2d20a9c0859fc6838a3a84e0426a\core.a(printf.c.o)
vprintf                                           C:\Users\minec\AppData\Local\arduino\sketches\CBAA8D2BDA3D583126B4F168E555FB8A/..\..\cores\69cc2d20a9c0859fc6838a3a84e0426a\core.a(printf.c.o)
                                                  C:\Users\minec\AppData\Local\arduino\sketches\CBAA8D2BDA3D583126B4F168E555FB8A/..\..\cores\69cc2d20a9c0859fc6838a3a84e0426a\core.a(Print.cpp.o)
vsnprintf                                         C:\Users\minec\AppData\Local\arduino\sketches\CBAA8D2BDA3D583126B4F168E555FB8A/..\..\cores\69cc2d20a9c0859fc6838a3a84e0426a\core.a(printf.c.o)
vsprintf                                          C:\Users\minec\AppData\Local\arduino\sketches\CBAA8D2BDA3D583126B4F168E555FB8A/..\..\cores\69cc2d20a9c0859fc6838a3a84e0426a\core.a(printf.c.o)
vtable for Print                                  C:\Users\minec\AppData\Local\arduino\sketches\CBAA8D2BDA3D583126B4F168E555FB8A/..\..\cores\69cc2d20a9c0859fc6838a3a84e0426a\core.a(Print.cpp.o)
vtable for Uart                                   C:\Users\minec\AppData\Local\arduino\sketches\CBAA8D2BDA3D583126B4F168E555FB8A/..\..\cores\69cc2d20a9c0859fc6838a3a84e0426a\core.a(Uart.cpp.o)
xPortGetFreeHeapSize                              C:\Users\minec\AppData\Local\arduino\sketches\CBAA8D2BDA3D583126B4F168E555FB8A/..\..\cores\69cc2d20a9c0859fc6838a3a84e0426a\core.a(heap_4.c.o)
                                                  C:\Users\minec\AppData\Local\arduino\sketches\CBAA8D2BDA3D583126B4F168E555FB8A/..\..\cores\69cc2d20a9c0859fc6838a3a84e0426a\core.a(rtos.cpp.o)
xPortGetMinimumEverFreeHeapSize                   C:\Users\minec\AppData\Local\arduino\sketches\CBAA8D2BDA3D583126B4F168E555FB8A/..\..\cores\69cc2d20a9c0859fc6838a3a84e0426a\core.a(heap_4.c.o)
xPortStartScheduler                               C:\Users\minec\AppData\Local\arduino\sketches\CBAA8D2BDA3D583126B4F168E555FB8A/..\..\cores\69cc2d20a9c0859fc6838a3a84e0426a\core.a(port_nrf52.c.o)
                                                  C:\Users\minec\AppData\Local\arduino\sketches\CBAA8D2BDA3D583126B4F168E555FB8A/..\..\cores\69cc2d20a9c0859fc6838a3a84e0426a\core.a(tasks.c.o)
xQueueCreateCountingSemaphore                     C:\Users\minec\AppData\Local\arduino\sketches\CBAA8D2BDA3D583126B4F168E555FB8A/..\..\cores\69cc2d20a9c0859fc6838a3a84e0426a\core.a(queue.c.o)
xQueueCreateCountingSemaphoreStatic               C:\Users\minec\AppData\Local\arduino\sketches\CBAA8D2BDA3D583126B4F168E555FB8A/..\..\cores\69cc2d20a9c0859fc6838a3a84e0426a\core.a(queue.c.o)
xQueueCreateMutex                                 C:\Users\minec\AppData\Local\arduino\sketches\CBAA8D2BDA3D583126B4F168E555FB8A/..\..\cores\69cc2d20a9c0859fc6838a3a84e0426a\core.a(queue.c.o)
xQueueCreateMutexStatic                           C:\Users\minec\AppData\Local\arduino\sketches\CBAA8D2BDA3D583126B4F168E555FB8A/..\..\cores\69cc2d20a9c0859fc6838a3a84e0426a\core.a(queue.c.o)
xQueueGenericCreate                               C:\Users\minec\AppData\Local\arduino\sketches\CBAA8D2BDA3D583126B4F168E555FB8A/..\..\cores\69cc2d20a9c0859fc6838a3a84e0426a\core.a(queue.c.o)
xQueueGenericCreateStatic                         C:\Users\minec\AppData\Local\arduino\sketches\CBAA8D2BDA3D583126B4F168E555FB8A/..\..\cores\69cc2d20a9c0859fc6838a3a84e0426a\core.a(queue.c.o)
                                                  C:\Users\minec\AppData\Local\arduino\sketches\CBAA8D2BDA3D583126B4F168E555FB8A/..\..\cores\69cc2d20a9c0859fc6838a3a84e0426a\core.a(timers.c.o)
xQueueGenericReset                                C:\Users\minec\AppData\Local\arduino\sketches\CBAA8D2BDA3D583126B4F168E555FB8A/..\..\cores\69cc2d20a9c0859fc6838a3a84e0426a\core.a(queue.c.o)
xQueueGenericSend                                 C:\Users\minec\AppData\Local\arduino\sketches\CBAA8D2BDA3D583126B4F168E555FB8A/..\..\cores\69cc2d20a9c0859fc6838a3a84e0426a\core.a(queue.c.o)
                                                  C:\Users\minec\AppData\Local\arduino\sketches\CBAA8D2BDA3D583126B4F168E555FB8A/..\..\cores\69cc2d20a9c0859fc6838a3a84e0426a\core.a(timers.c.o)
xQueueGenericSendFromISR                          C:\Users\minec\AppData\Local\arduino\sketches\CBAA8D2BDA3D583126B4F168E555FB8A/..\..\cores\69cc2d20a9c0859fc6838a3a84e0426a\core.a(queue.c.o)
                                                  C:\Users\minec\AppData\Local\arduino\sketches\CBAA8D2BDA3D583126B4F168E555FB8A/..\..\cores\69cc2d20a9c0859fc6838a3a84e0426a\core.a(timers.c.o)
xQueueGiveFromISR                                 C:\Users\minec\AppData\Local\arduino\sketches\CBAA8D2BDA3D583126B4F168E555FB8A/..\..\cores\69cc2d20a9c0859fc6838a3a84e0426a\core.a(queue.c.o)
xQueueGiveMutexRecursive                          C:\Users\minec\AppData\Local\arduino\sketches\CBAA8D2BDA3D583126B4F168E555FB8A/..\..\cores\69cc2d20a9c0859fc6838a3a84e0426a\core.a(queue.c.o)
xQueueIsQueueEmptyFromISR                         C:\Users\minec\AppData\Local\arduino\sketches\CBAA8D2BDA3D583126B4F168E555FB8A/..\..\cores\69cc2d20a9c0859fc6838a3a84e0426a\core.a(queue.c.o)
xQueueIsQueueFullFromISR                          C:\Users\minec\AppData\Local\arduino\sketches\CBAA8D2BDA3D583126B4F168E555FB8A/..\..\cores\69cc2d20a9c0859fc6838a3a84e0426a\core.a(queue.c.o)
xQueuePeek                                        C:\Users\minec\AppData\Local\arduino\sketches\CBAA8D2BDA3D583126B4F168E555FB8A/..\..\cores\69cc2d20a9c0859fc6838a3a84e0426a\core.a(queue.c.o)
xQueuePeekFromISR                                 C:\Users\minec\AppData\Local\arduino\sketches\CBAA8D2BDA3D583126B4F168E555FB8A/..\..\cores\69cc2d20a9c0859fc6838a3a84e0426a\core.a(queue.c.o)
xQueueReceive                                     C:\Users\minec\AppData\Local\arduino\sketches\CBAA8D2BDA3D583126B4F168E555FB8A/..\..\cores\69cc2d20a9c0859fc6838a3a84e0426a\core.a(queue.c.o)
                                                  C:\Users\minec\AppData\Local\arduino\sketches\CBAA8D2BDA3D583126B4F168E555FB8A/..\..\cores\69cc2d20a9c0859fc6838a3a84e0426a\core.a(timers.c.o)
xQueueReceiveFromISR                              C:\Users\minec\AppData\Local\arduino\sketches\CBAA8D2BDA3D583126B4F168E555FB8A/..\..\cores\69cc2d20a9c0859fc6838a3a84e0426a\core.a(queue.c.o)
xQueueSemaphoreTake                               C:\Users\minec\AppData\Local\arduino\sketches\CBAA8D2BDA3D583126B4F168E555FB8A/..\..\cores\69cc2d20a9c0859fc6838a3a84e0426a\core.a(queue.c.o)
xQueueTakeMutexRecursive                          C:\Users\minec\AppData\Local\arduino\sketches\CBAA8D2BDA3D583126B4F168E555FB8A/..\..\cores\69cc2d20a9c0859fc6838a3a84e0426a\core.a(queue.c.o)
xTaskCatchUpTicks                                 C:\Users\minec\AppData\Local\arduino\sketches\CBAA8D2BDA3D583126B4F168E555FB8A/..\..\cores\69cc2d20a9c0859fc6838a3a84e0426a\core.a(tasks.c.o)
xTaskCheckForTimeOut                              C:\Users\minec\AppData\Local\arduino\sketches\CBAA8D2BDA3D583126B4F168E555FB8A/..\..\cores\69cc2d20a9c0859fc6838a3a84e0426a\core.a(tasks.c.o)
                                                  C:\Users\minec\AppData\Local\arduino\sketches\CBAA8D2BDA3D583126B4F168E555FB8A/..\..\cores\69cc2d20a9c0859fc6838a3a84e0426a\core.a(queue.c.o)
xTaskCreate                                       C:\Users\minec\AppData\Local\arduino\sketches\CBAA8D2BDA3D583126B4F168E555FB8A/..\..\cores\69cc2d20a9c0859fc6838a3a84e0426a\core.a(tasks.c.o)
xTaskCreateStatic                                 C:\Users\minec\AppData\Local\arduino\sketches\CBAA8D2BDA3D583126B4F168E555FB8A/..\..\cores\69cc2d20a9c0859fc6838a3a84e0426a\core.a(tasks.c.o)
                                                  C:\Users\minec\AppData\Local\arduino\sketches\CBAA8D2BDA3D583126B4F168E555FB8A/..\..\cores\69cc2d20a9c0859fc6838a3a84e0426a\core.a(main.cpp.o)
                                                  C:\Users\minec\AppData\Local\arduino\sketches\CBAA8D2BDA3D583126B4F168E555FB8A/..\..\cores\69cc2d20a9c0859fc6838a3a84e0426a\core.a(timers.c.o)
xTaskDelayUntil                                   C:\Users\minec\AppData\Local\arduino\sketches\CBAA8D2BDA3D583126B4F168E555FB8A/..\..\cores\69cc2d20a9c0859fc6838a3a84e0426a\core.a(tasks.c.o)
xTaskGenericNotify                                C:\Users\minec\AppData\Local\arduino\sketches\CBAA8D2BDA3D583126B4F168E555FB8A/..\..\cores\69cc2d20a9c0859fc6838a3a84e0426a\core.a(tasks.c.o)
xTaskGenericNotifyFromISR                         C:\Users\minec\AppData\Local\arduino\sketches\CBAA8D2BDA3D583126B4F168E555FB8A/..\..\cores\69cc2d20a9c0859fc6838a3a84e0426a\core.a(tasks.c.o)
xTaskGenericNotifyStateClear                      C:\Users\minec\AppData\Local\arduino\sketches\CBAA8D2BDA3D583126B4F168E555FB8A/..\..\cores\69cc2d20a9c0859fc6838a3a84e0426a\core.a(tasks.c.o)
xTaskGenericNotifyWait                            C:\Users\minec\AppData\Local\arduino\sketches\CBAA8D2BDA3D583126B4F168E555FB8A/..\..\cores\69cc2d20a9c0859fc6838a3a84e0426a\core.a(tasks.c.o)
xTaskGetCurrentTaskHandle                         C:\Users\minec\AppData\Local\arduino\sketches\CBAA8D2BDA3D583126B4F168E555FB8A/..\..\cores\69cc2d20a9c0859fc6838a3a84e0426a\core.a(tasks.c.o)
                                                  C:\Users\minec\AppData\Local\arduino\sketches\CBAA8D2BDA3D583126B4F168E555FB8A/..\..\cores\69cc2d20a9c0859fc6838a3a84e0426a\core.a(queue.c.o)
xTaskGetIdleTaskHandle                            C:\Users\minec\AppData\Local\arduino\sketches\CBAA8D2BDA3D583126B4F168E555FB8A/..\..\cores\69cc2d20a9c0859fc6838a3a84e0426a\core.a(tasks.c.o)
                                                  C:\Users\minec\AppData\Local\arduino\sketches\CBAA8D2BDA3D583126B4F168E555FB8A/..\..\cores\69cc2d20a9c0859fc6838a3a84e0426a\core.a(rtos.cpp.o)
xTaskGetSchedulerState                            C:\Users\minec\AppData\Local\arduino\sketches\CBAA8D2BDA3D583126B4F168E555FB8A/..\..\cores\69cc2d20a9c0859fc6838a3a84e0426a\core.a(tasks.c.o)
                                                  C:\Users\minec\AppData\Local\arduino\sketches\CBAA8D2BDA3D583126B4F168E555FB8A/..\..\cores\69cc2d20a9c0859fc6838a3a84e0426a\core.a(port_nrf52_systick.c.o)
                                                  C:\Users\minec\AppData\Local\arduino\sketches\CBAA8D2BDA3D583126B4F168E555FB8A/..\..\cores\69cc2d20a9c0859fc6838a3a84e0426a\core.a(timers.c.o)
xTaskGetTickCount                                 C:\Users\minec\AppData\Local\arduino\sketches\CBAA8D2BDA3D583126B4F168E555FB8A/..\..\cores\69cc2d20a9c0859fc6838a3a84e0426a\core.a(tasks.c.o)
                                                  C:\Users\minec\AppData\Local\arduino\sketches\CBAA8D2BDA3D583126B4F168E555FB8A/..\..\cores\69cc2d20a9c0859fc6838a3a84e0426a\core.a(port_nrf52_systick.c.o)
                                                  C:\Users\minec\AppData\Local\arduino\sketches\CBAA8D2BDA3D583126B4F168E555FB8A/..\..\cores\69cc2d20a9c0859fc6838a3a84e0426a\core.a(timers.c.o)
                                                  C:\Users\minec\AppData\Local\arduino\sketches\CBAA8D2BDA3D583126B4F168E555FB8A/..\..\cores\69cc2d20a9c0859fc6838a3a84e0426a\core.a(delay.c.o)
xTaskGetTickCountFromISR                          C:\Users\minec\AppData\Local\arduino\sketches\CBAA8D2BDA3D583126B4F168E555FB8A/..\..\cores\69cc2d20a9c0859fc6838a3a84e0426a\core.a(tasks.c.o)
xTaskIncrementTick                                C:\Users\minec\AppData\Local\arduino\sketches\CBAA8D2BDA3D583126B4F168E555FB8A/..\..\cores\69cc2d20a9c0859fc6838a3a84e0426a\core.a(tasks.c.o)
                                                  C:\Users\minec\AppData\Local\arduino\sketches\CBAA8D2BDA3D583126B4F168E555FB8A/..\..\cores\69cc2d20a9c0859fc6838a3a84e0426a\core.a(port_nrf52_systick.c.o)
xTaskPriorityDisinherit                           C:\Users\minec\AppData\Local\arduino\sketches\CBAA8D2BDA3D583126B4F168E555FB8A/..\..\cores\69cc2d20a9c0859fc6838a3a84e0426a\core.a(tasks.c.o)
                                                  C:\Users\minec\AppData\Local\arduino\sketches\CBAA8D2BDA3D583126B4F168E555FB8A/..\..\cores\69cc2d20a9c0859fc6838a3a84e0426a\core.a(queue.c.o)
xTaskPriorityInherit                              C:\Users\minec\AppData\Local\arduino\sketches\CBAA8D2BDA3D583126B4F168E555FB8A/..\..\cores\69cc2d20a9c0859fc6838a3a84e0426a\core.a(tasks.c.o)
                                                  C:\Users\minec\AppData\Local\arduino\sketches\CBAA8D2BDA3D583126B4F168E555FB8A/..\..\cores\69cc2d20a9c0859fc6838a3a84e0426a\core.a(queue.c.o)
xTaskRemoveFromEventList                          C:\Users\minec\AppData\Local\arduino\sketches\CBAA8D2BDA3D583126B4F168E555FB8A/..\..\cores\69cc2d20a9c0859fc6838a3a84e0426a\core.a(tasks.c.o)
                                                  C:\Users\minec\AppData\Local\arduino\sketches\CBAA8D2BDA3D583126B4F168E555FB8A/..\..\cores\69cc2d20a9c0859fc6838a3a84e0426a\core.a(queue.c.o)
xTaskResumeAll                                    C:\Users\minec\AppData\Local\arduino\sketches\CBAA8D2BDA3D583126B4F168E555FB8A/..\..\cores\69cc2d20a9c0859fc6838a3a84e0426a\core.a(tasks.c.o)
                                                  C:\Users\minec\AppData\Local\arduino\sketches\CBAA8D2BDA3D583126B4F168E555FB8A/..\..\cores\69cc2d20a9c0859fc6838a3a84e0426a\core.a(queue.c.o)
                                                  C:\Users\minec\AppData\Local\arduino\sketches\CBAA8D2BDA3D583126B4F168E555FB8A/..\..\cores\69cc2d20a9c0859fc6838a3a84e0426a\core.a(heap_4.c.o)
                                                  C:\Users\minec\AppData\Local\arduino\sketches\CBAA8D2BDA3D583126B4F168E555FB8A/..\..\cores\69cc2d20a9c0859fc6838a3a84e0426a\core.a(timers.c.o)
xTaskResumeFromISR                                C:\Users\minec\AppData\Local\arduino\sketches\CBAA8D2BDA3D583126B4F168E555FB8A/..\..\cores\69cc2d20a9c0859fc6838a3a84e0426a\core.a(tasks.c.o)
xTimerCreate                                      C:\Users\minec\AppData\Local\arduino\sketches\CBAA8D2BDA3D583126B4F168E555FB8A/..\..\cores\69cc2d20a9c0859fc6838a3a84e0426a\core.a(timers.c.o)
xTimerCreateStatic                                C:\Users\minec\AppData\Local\arduino\sketches\CBAA8D2BDA3D583126B4F168E555FB8A/..\..\cores\69cc2d20a9c0859fc6838a3a84e0426a\core.a(timers.c.o)
xTimerCreateTimerTask                             C:\Users\minec\AppData\Local\arduino\sketches\CBAA8D2BDA3D583126B4F168E555FB8A/..\..\cores\69cc2d20a9c0859fc6838a3a84e0426a\core.a(timers.c.o)
                                                  C:\Users\minec\AppData\Local\arduino\sketches\CBAA8D2BDA3D583126B4F168E555FB8A/..\..\cores\69cc2d20a9c0859fc6838a3a84e0426a\core.a(tasks.c.o)
xTimerGenericCommand                              C:\Users\minec\AppData\Local\arduino\sketches\CBAA8D2BDA3D583126B4F168E555FB8A/..\..\cores\69cc2d20a9c0859fc6838a3a84e0426a\core.a(timers.c.o)
xTimerGetExpiryTime                               C:\Users\minec\AppData\Local\arduino\sketches\CBAA8D2BDA3D583126B4F168E555FB8A/..\..\cores\69cc2d20a9c0859fc6838a3a84e0426a\core.a(timers.c.o)
xTimerGetPeriod                                   C:\Users\minec\AppData\Local\arduino\sketches\CBAA8D2BDA3D583126B4F168E555FB8A/..\..\cores\69cc2d20a9c0859fc6838a3a84e0426a\core.a(timers.c.o)
xTimerGetTimerDaemonTaskHandle                    C:\Users\minec\AppData\Local\arduino\sketches\CBAA8D2BDA3D583126B4F168E555FB8A/..\..\cores\69cc2d20a9c0859fc6838a3a84e0426a\core.a(timers.c.o)
                                                  C:\Users\minec\AppData\Local\arduino\sketches\CBAA8D2BDA3D583126B4F168E555FB8A/..\..\cores\69cc2d20a9c0859fc6838a3a84e0426a\core.a(rtos.cpp.o)
xTimerIsTimerActive                               C:\Users\minec\AppData\Local\arduino\sketches\CBAA8D2BDA3D583126B4F168E555FB8A/..\..\cores\69cc2d20a9c0859fc6838a3a84e0426a\core.a(timers.c.o)
xTimerPendFunctionCall                            C:\Users\minec\AppData\Local\arduino\sketches\CBAA8D2BDA3D583126B4F168E555FB8A/..\..\cores\69cc2d20a9c0859fc6838a3a84e0426a\core.a(timers.c.o)
xTimerPendFunctionCallFromISR                     C:\Users\minec\AppData\Local\arduino\sketches\CBAA8D2BDA3D583126B4F168E555FB8A/..\..\cores\69cc2d20a9c0859fc6838a3a84e0426a\core.a(timers.c.o)
yield                                             C:\Users\minec\AppData\Local\arduino\sketches\CBAA8D2BDA3D583126B4F168E555FB8A/..\..\cores\69cc2d20a9c0859fc6838a3a84e0426a\core.a(delay.c.o)
                                                  C:\Users\minec\AppData\Local\arduino\sketches\CBAA8D2BDA3D583126B4F168E555FB8A/..\..\cores\69cc2d20a9c0859fc6838a3a84e0426a\core.a(main.cpp.o)
